---
triple:          'arm64-apple-darwin'
binary-path:     main
relocations:
  - { offset: 0x3B, size: 0x8, addend: 0x0, symName: _.str, symObjAddr: 0x1E960, symBinAddr: 0x100071D20, symSize: 0x0 }
  - { offset: 0x6B, size: 0x8, addend: 0x0, symName: _.str.1, symObjAddr: 0x1E980, symBinAddr: 0x100071D40, symSize: 0x0 }
  - { offset: 0x88, size: 0x8, addend: 0x0, symName: _.str.2, symObjAddr: 0x1E9C0, symBinAddr: 0x100071D80, symSize: 0x0 }
  - { offset: 0xA5, size: 0x8, addend: 0x0, symName: _.str.3, symObjAddr: 0x1E9E0, symBinAddr: 0x100071DA0, symSize: 0x0 }
  - { offset: 0xC2, size: 0x8, addend: 0x0, symName: _.str.4, symObjAddr: 0x1EA00, symBinAddr: 0x100071DC0, symSize: 0x0 }
  - { offset: 0xDF, size: 0x8, addend: 0x0, symName: _.str.5, symObjAddr: 0x1EA60, symBinAddr: 0x100071E20, symSize: 0x0 }
  - { offset: 0xFC, size: 0x8, addend: 0x0, symName: _.str.6, symObjAddr: 0x1EAA0, symBinAddr: 0x100071E60, symSize: 0x0 }
  - { offset: 0x119, size: 0x8, addend: 0x0, symName: _.str.7, symObjAddr: 0x1EAC0, symBinAddr: 0x100071E80, symSize: 0x0 }
  - { offset: 0x136, size: 0x8, addend: 0x0, symName: _.str.8, symObjAddr: 0x1EB20, symBinAddr: 0x100071EE0, symSize: 0x0 }
  - { offset: 0x153, size: 0x8, addend: 0x0, symName: _.str.9, symObjAddr: 0x1EB60, symBinAddr: 0x100071F20, symSize: 0x0 }
  - { offset: 0x170, size: 0x8, addend: 0x0, symName: _.str.10, symObjAddr: 0x1EBC0, symBinAddr: 0x100071F80, symSize: 0x0 }
  - { offset: 0x181, size: 0x8, addend: 0x0, symName: _.str.11, symObjAddr: 0x1EC00, symBinAddr: 0x100071FC0, symSize: 0x0 }
  - { offset: 0x19E, size: 0x8, addend: 0x0, symName: _.str.12, symObjAddr: 0x1EC60, symBinAddr: 0x100072020, symSize: 0x0 }
  - { offset: 0x1BB, size: 0x8, addend: 0x0, symName: _.str.13, symObjAddr: 0x1EC80, symBinAddr: 0x100072040, symSize: 0x0 }
  - { offset: 0x1CC, size: 0x8, addend: 0x0, symName: _.str.14, symObjAddr: 0x1ECA0, symBinAddr: 0x100072060, symSize: 0x0 }
  - { offset: 0x1DD, size: 0x8, addend: 0x0, symName: _.str.15, symObjAddr: 0x1ECC0, symBinAddr: 0x100072080, symSize: 0x0 }
  - { offset: 0x1FA, size: 0x8, addend: 0x0, symName: _.str.16, symObjAddr: 0x1ECE0, symBinAddr: 0x1000720A0, symSize: 0x0 }
  - { offset: 0x20B, size: 0x8, addend: 0x0, symName: _.str.17, symObjAddr: 0x1ED00, symBinAddr: 0x1000720C0, symSize: 0x0 }
  - { offset: 0x21C, size: 0x8, addend: 0x0, symName: _.str.18, symObjAddr: 0x1ED20, symBinAddr: 0x1000720E0, symSize: 0x0 }
  - { offset: 0x239, size: 0x8, addend: 0x0, symName: _.str.19, symObjAddr: 0x1ED60, symBinAddr: 0x100072120, symSize: 0x0 }
  - { offset: 0x256, size: 0x8, addend: 0x0, symName: _.str.20, symObjAddr: 0x1EDA0, symBinAddr: 0x100072160, symSize: 0x0 }
  - { offset: 0x273, size: 0x8, addend: 0x0, symName: _.str.21, symObjAddr: 0x1EE00, symBinAddr: 0x1000721C0, symSize: 0x0 }
  - { offset: 0x290, size: 0x8, addend: 0x0, symName: _.str.22, symObjAddr: 0x1EE40, symBinAddr: 0x100072200, symSize: 0x0 }
  - { offset: 0x2AD, size: 0x8, addend: 0x0, symName: _.str.23, symObjAddr: 0x1EE80, symBinAddr: 0x100072240, symSize: 0x0 }
  - { offset: 0x2CA, size: 0x8, addend: 0x0, symName: _.str.24, symObjAddr: 0x1EEE0, symBinAddr: 0x1000722A0, symSize: 0x0 }
  - { offset: 0x2E7, size: 0x8, addend: 0x0, symName: _.str.25, symObjAddr: 0x1EF20, symBinAddr: 0x1000722E0, symSize: 0x0 }
  - { offset: 0x304, size: 0x8, addend: 0x0, symName: _.str.26, symObjAddr: 0x1EF80, symBinAddr: 0x100072340, symSize: 0x0 }
  - { offset: 0x315, size: 0x8, addend: 0x0, symName: _.str.27, symObjAddr: 0x1EFC0, symBinAddr: 0x100072380, symSize: 0x0 }
  - { offset: 0x332, size: 0x8, addend: 0x0, symName: _.str.28, symObjAddr: 0x1EFE0, symBinAddr: 0x1000723A0, symSize: 0x0 }
  - { offset: 0x343, size: 0x8, addend: 0x0, symName: _.str.29, symObjAddr: 0x1F000, symBinAddr: 0x1000723C0, symSize: 0x0 }
  - { offset: 0x354, size: 0x8, addend: 0x0, symName: _.str.30, symObjAddr: 0x1F020, symBinAddr: 0x1000723E0, symSize: 0x0 }
  - { offset: 0x365, size: 0x8, addend: 0x0, symName: _.str.31, symObjAddr: 0x1F040, symBinAddr: 0x100072400, symSize: 0x0 }
  - { offset: 0x376, size: 0x8, addend: 0x0, symName: _.str.32, symObjAddr: 0x1F060, symBinAddr: 0x100072420, symSize: 0x0 }
  - { offset: 0x387, size: 0x8, addend: 0x0, symName: _.str.33, symObjAddr: 0x1F080, symBinAddr: 0x100072440, symSize: 0x0 }
  - { offset: 0x398, size: 0x8, addend: 0x0, symName: _.str.34, symObjAddr: 0x1F0A0, symBinAddr: 0x100072460, symSize: 0x0 }
  - { offset: 0x3A9, size: 0x8, addend: 0x0, symName: _.str.35, symObjAddr: 0x1F0C0, symBinAddr: 0x100072480, symSize: 0x0 }
  - { offset: 0x3BA, size: 0x8, addend: 0x0, symName: _.str.36, symObjAddr: 0x1F0E0, symBinAddr: 0x1000724A0, symSize: 0x0 }
  - { offset: 0x3CB, size: 0x8, addend: 0x0, symName: _.str.37, symObjAddr: 0x1F100, symBinAddr: 0x1000724C0, symSize: 0x0 }
  - { offset: 0x3DC, size: 0x8, addend: 0x0, symName: _.str.38, symObjAddr: 0x1F120, symBinAddr: 0x1000724E0, symSize: 0x0 }
  - { offset: 0x3ED, size: 0x8, addend: 0x0, symName: _.str.39, symObjAddr: 0x1F140, symBinAddr: 0x100072500, symSize: 0x0 }
  - { offset: 0x3FE, size: 0x8, addend: 0x0, symName: _.str.40, symObjAddr: 0x1F160, symBinAddr: 0x100072520, symSize: 0x0 }
  - { offset: 0x40F, size: 0x8, addend: 0x0, symName: _.str.41, symObjAddr: 0x1F180, symBinAddr: 0x100072540, symSize: 0x0 }
  - { offset: 0x420, size: 0x8, addend: 0x0, symName: _.str.42, symObjAddr: 0x1F1A0, symBinAddr: 0x100072560, symSize: 0x0 }
  - { offset: 0x431, size: 0x8, addend: 0x0, symName: _.str.43, symObjAddr: 0x1F1C0, symBinAddr: 0x100072580, symSize: 0x0 }
  - { offset: 0x442, size: 0x8, addend: 0x0, symName: _.str.44, symObjAddr: 0x1F1E0, symBinAddr: 0x1000725A0, symSize: 0x0 }
  - { offset: 0x453, size: 0x8, addend: 0x0, symName: _.str.45, symObjAddr: 0x1F200, symBinAddr: 0x1000725C0, symSize: 0x0 }
  - { offset: 0x464, size: 0x8, addend: 0x0, symName: _.str.46, symObjAddr: 0x1F220, symBinAddr: 0x1000725E0, symSize: 0x0 }
  - { offset: 0x475, size: 0x8, addend: 0x0, symName: _.str.47, symObjAddr: 0x1F240, symBinAddr: 0x100072600, symSize: 0x0 }
  - { offset: 0x486, size: 0x8, addend: 0x0, symName: _.str.48, symObjAddr: 0x1F260, symBinAddr: 0x100072620, symSize: 0x0 }
  - { offset: 0x497, size: 0x8, addend: 0x0, symName: _.str.49, symObjAddr: 0x1F280, symBinAddr: 0x100072640, symSize: 0x0 }
  - { offset: 0x4A8, size: 0x8, addend: 0x0, symName: _.str.50, symObjAddr: 0x1F2A0, symBinAddr: 0x100072660, symSize: 0x0 }
  - { offset: 0x4B9, size: 0x8, addend: 0x0, symName: _.str.51, symObjAddr: 0x1F2C0, symBinAddr: 0x100072680, symSize: 0x0 }
  - { offset: 0x4CA, size: 0x8, addend: 0x0, symName: _.str.52, symObjAddr: 0x1F2E0, symBinAddr: 0x1000726A0, symSize: 0x0 }
  - { offset: 0x4DB, size: 0x8, addend: 0x0, symName: _.str.53, symObjAddr: 0x1F300, symBinAddr: 0x1000726C0, symSize: 0x0 }
  - { offset: 0x4EC, size: 0x8, addend: 0x0, symName: _.str.54, symObjAddr: 0x1F320, symBinAddr: 0x1000726E0, symSize: 0x0 }
  - { offset: 0x4FD, size: 0x8, addend: 0x0, symName: _.str.55, symObjAddr: 0x1F340, symBinAddr: 0x100072700, symSize: 0x0 }
  - { offset: 0x50E, size: 0x8, addend: 0x0, symName: _.str.56, symObjAddr: 0x1F360, symBinAddr: 0x100072720, symSize: 0x0 }
  - { offset: 0x51F, size: 0x8, addend: 0x0, symName: _.str.57, symObjAddr: 0x1F380, symBinAddr: 0x100072740, symSize: 0x0 }
  - { offset: 0x530, size: 0x8, addend: 0x0, symName: _.str.58, symObjAddr: 0x1F3A0, symBinAddr: 0x100072760, symSize: 0x0 }
  - { offset: 0x541, size: 0x8, addend: 0x0, symName: _.str.59, symObjAddr: 0x1F3C0, symBinAddr: 0x100072780, symSize: 0x0 }
  - { offset: 0x552, size: 0x8, addend: 0x0, symName: _.str.60, symObjAddr: 0x1F3E0, symBinAddr: 0x1000727A0, symSize: 0x0 }
  - { offset: 0x563, size: 0x8, addend: 0x0, symName: _.str.61, symObjAddr: 0x1F400, symBinAddr: 0x1000727C0, symSize: 0x0 }
  - { offset: 0x574, size: 0x8, addend: 0x0, symName: _.str.62, symObjAddr: 0x1F420, symBinAddr: 0x1000727E0, symSize: 0x0 }
  - { offset: 0x591, size: 0x8, addend: 0x0, symName: _.str.63, symObjAddr: 0x1F460, symBinAddr: 0x100072820, symSize: 0x0 }
  - { offset: 0x5BC, size: 0x8, addend: 0x0, symName: __ZNSt3__119piecewise_constructE, symObjAddr: 0x1FAC0, symBinAddr: 0x100071B48, symSize: 0x0 }
  - { offset: 0xA589, size: 0x8, addend: 0x0, symName: __ZNSt3__124__put_character_sequenceB8ne180100IcNS_11char_traitsIcEEEERNS_13basic_ostreamIT_T0_EES7_PKS4_m, symObjAddr: 0x1BC1C, symBinAddr: 0x10001F8A0, symSize: 0x838 }
  - { offset: 0xB613, size: 0x8, addend: 0x0, symName: __ZNSt3__1eqB8ne180100IcNS_11char_traitsIcEENS_9allocatorIcEEEEbRKNS_12basic_stringIT_T0_T1_EEPKS6_, symObjAddr: 0xD48, symBinAddr: 0x1000049CC, symSize: 0xC8 }
  - { offset: 0xB67A, size: 0x8, addend: 0x0, symName: __ZNSt3__1lsB8ne180100INS_11char_traitsIcEEEERNS_13basic_ostreamIcT_EES6_PKc, symObjAddr: 0x2620, symBinAddr: 0x1000062A4, symSize: 0x48 }
  - { offset: 0xB6C0, size: 0x8, addend: 0x0, symName: __ZNSt3__14endlB8ne180100IcNS_11char_traitsIcEEEERNS_13basic_ostreamIT_T0_EES7_, symObjAddr: 0x4654, symBinAddr: 0x1000082D8, symSize: 0xD4 }
  - { offset: 0xB700, size: 0x8, addend: 0x0, symName: __ZNSt3__1lsB8ne180100IcNS_11char_traitsIcEENS_9allocatorIcEEEERNS_13basic_ostreamIT_T0_EES9_RKNS_12basic_stringIS6_S7_T1_EE, symObjAddr: 0x4738, symBinAddr: 0x1000083BC, symSize: 0x4C }
  - { offset: 0xB758, size: 0x8, addend: 0x0, symName: __ZNSt3__1neB8ne180100ERKNS_14__map_iteratorINS_15__tree_iteratorINS_12__value_typeINS_12basic_stringIcNS_11char_traitsIcEENS_9allocatorIcEEEEM11T_ArrayListFbvEEEPNS_11__tree_nodeISC_PvEElEEEESK_, symObjAddr: 0x6D4C, symBinAddr: 0x10000A9D0, symSize: 0x30 }
  - { offset: 0xB795, size: 0x8, addend: 0x0, symName: __ZNSt3__1plB8ne180100IcNS_11char_traitsIcEENS_9allocatorIcEEEENS_12basic_stringIT_T0_T1_EEOS9_PKS6_, symObjAddr: 0x72CC, symBinAddr: 0x10000AF50, symSize: 0x40 }
  - { offset: 0xB7ED, size: 0x8, addend: 0x0, symName: __ZNSt3__1neB8ne180100ERKNS_15__tree_iteratorINS_12__value_typeINS_12basic_stringIcNS_11char_traitsIcEENS_9allocatorIcEEEEM11T_ArrayListFbvEEEPNS_11__tree_nodeISB_PvEElEESI_, symObjAddr: 0x7610, symBinAddr: 0x10000B294, symSize: 0x34 }
  - { offset: 0xB82A, size: 0x8, addend: 0x0, symName: __ZNSt3__1eqB8ne180100ERKNS_15__tree_iteratorINS_12__value_typeINS_12basic_stringIcNS_11char_traitsIcEENS_9allocatorIcEEEEM11T_ArrayListFbvEEEPNS_11__tree_nodeISB_PvEElEESI_, symObjAddr: 0x7644, symBinAddr: 0x10000B2C8, symSize: 0xB8 }
  - { offset: 0xB867, size: 0x8, addend: 0x0, symName: __ZNSt3__1ltB8ne180100IcNS_11char_traitsIcEENS_9allocatorIcEEEEbRKNS_12basic_stringIT_T0_T1_EESB_, symObjAddr: 0x83F8, symBinAddr: 0x10000C07C, symSize: 0x38 }
  - { offset: 0xB8BF, size: 0x8, addend: 0x0, symName: __ZNSt3__13minB8ne180100ImEERKT_S3_S3_, symObjAddr: 0x8F28, symBinAddr: 0x10000CBAC, symSize: 0x2C }
  - { offset: 0xB902, size: 0x8, addend: 0x0, symName: __ZNSt3__112__to_addressB8ne180100IKcEEPT_S3_, symObjAddr: 0x9140, symBinAddr: 0x10000CDC4, symSize: 0x14 }
  - { offset: 0xB96A, size: 0x8, addend: 0x0, symName: __ZNSt3__13minB8ne180100ImNS_6__lessIvvEEEERKT_S5_S5_T0_, symObjAddr: 0x9250, symBinAddr: 0x10000CED4, symSize: 0x1E0 }
  - { offset: 0xBA0F, size: 0x8, addend: 0x0, symName: __ZNSt3__17launderB8ne180100IKNS_4pairIKNS_12basic_stringIcNS_11char_traitsIcEENS_9allocatorIcEEEEM11T_ArrayListFbvEEEEEPT_SF_, symObjAddr: 0x95E4, symBinAddr: 0x10000D268, symSize: 0x24 }
  - { offset: 0xBA46, size: 0x8, addend: 0x0, symName: __ZNSt3__19__launderB8ne180100IKNS_4pairIKNS_12basic_stringIcNS_11char_traitsIcEENS_9allocatorIcEEEEM11T_ArrayListFbvEEEEEPT_SF_, symObjAddr: 0x9608, symBinAddr: 0x10000D28C, symSize: 0x14 }
  - { offset: 0xBAE7, size: 0x8, addend: 0x0, symName: __ZNSt3__116forward_as_tupleB8ne180100IJRKNS_12basic_stringIcNS_11char_traitsIcEENS_9allocatorIcEEEEEEENS_5tupleIJDpOT_EEESC_, symObjAddr: 0xA2BC, symBinAddr: 0x10000DF40, symSize: 0x1F0 }
  - { offset: 0xBB21, size: 0x8, addend: 0x0, symName: __ZNSt3__116forward_as_tupleB8ne180100IJEEENS_5tupleIJDpOT_EEES4_, symObjAddr: 0xA4AC, symBinAddr: 0x10000E130, symSize: 0x4 }
  - { offset: 0xBB63, size: 0x8, addend: 0x0, symName: __ZNSt3__117__libcpp_allocateB8ne180100Emm, symObjAddr: 0xB4B0, symBinAddr: 0x10000F134, symSize: 0x60 }
  - { offset: 0xBBBD, size: 0x8, addend: 0x0, symName: __ZNSt3__124__is_overaligned_for_newB8ne180100Em, symObjAddr: 0xB530, symBinAddr: 0x10000F1B4, symSize: 0x20 }
  - { offset: 0xBBEB, size: 0x8, addend: 0x0, symName: __ZNSt3__121__libcpp_operator_newB8ne180100IJmSt11align_val_tEEEPvDpT_, symObjAddr: 0xB550, symBinAddr: 0x10000F1D4, symSize: 0x2C }
  - { offset: 0xBC38, size: 0x8, addend: 0x0, symName: __ZNSt3__121__libcpp_operator_newB8ne180100IJmEEEPvDpT_, symObjAddr: 0xB57C, symBinAddr: 0x10000F200, symSize: 0x24 }
  - { offset: 0xBC7C, size: 0x8, addend: 0x0, symName: __ZNSt3__13getB8ne180100ILm0EJRKNS_12basic_stringIcNS_11char_traitsIcEENS_9allocatorIcEEEEEEERNS_13tuple_elementIXT_ENS_5tupleIJDpT0_EEEE4typeERSD_, symObjAddr: 0xBF50, symBinAddr: 0x10000FBD4, symSize: 0x24 }
  - { offset: 0xBCBF, size: 0x8, addend: 0x0, symName: __ZNSt3__127__tree_balance_after_insertB8ne180100IPNS_16__tree_node_baseIPvEEEEvT_S5_, symObjAddr: 0xC05C, symBinAddr: 0x10000FCE0, symSize: 0x960 }
  - { offset: 0xBD33, size: 0x8, addend: 0x0, symName: __ZNSt3__120__tree_is_left_childB8ne180100IPNS_16__tree_node_baseIPvEEEEbT_, symObjAddr: 0xCA48, symBinAddr: 0x1000106CC, symSize: 0xB8 }
  - { offset: 0xBD68, size: 0x8, addend: 0x0, symName: __ZNSt3__118__tree_left_rotateB8ne180100IPNS_16__tree_node_baseIPvEEEEvT_, symObjAddr: 0xCB00, symBinAddr: 0x100010784, symSize: 0x374 }
  - { offset: 0xBDA7, size: 0x8, addend: 0x0, symName: __ZNSt3__119__tree_right_rotateB8ne180100IPNS_16__tree_node_baseIPvEEEEvT_, symObjAddr: 0xCE74, symBinAddr: 0x100010AF8, symSize: 0x354 }
  - { offset: 0xBDE9, size: 0x8, addend: 0x0, symName: __ZNSt3__112__destroy_atB8ne180100INS_4pairIKNS_12basic_stringIcNS_11char_traitsIcEENS_9allocatorIcEEEEM11T_ArrayListFbvEEELi0EEEvPT_, symObjAddr: 0xD58C, symBinAddr: 0x100011210, symSize: 0x24 }
  - { offset: 0xBE20, size: 0x8, addend: 0x0, symName: __ZNSt3__119__libcpp_deallocateB8ne180100EPvmm, symObjAddr: 0xD658, symBinAddr: 0x1000112DC, symSize: 0x60 }
  - { offset: 0xBE85, size: 0x8, addend: 0x0, symName: __ZNSt3__127__do_deallocate_handle_sizeB8ne180100IJSt11align_val_tEEEvPvmDpT_, symObjAddr: 0xD6B8, symBinAddr: 0x10001133C, symSize: 0x30 }
  - { offset: 0xBED8, size: 0x8, addend: 0x0, symName: __ZNSt3__127__do_deallocate_handle_sizeB8ne180100IJEEEvPvmDpT_, symObjAddr: 0xD6E8, symBinAddr: 0x10001136C, symSize: 0x28 }
  - { offset: 0xBF16, size: 0x8, addend: 0x0, symName: __ZNSt3__124__libcpp_operator_deleteB8ne180100IJPvSt11align_val_tEEEvDpT_, symObjAddr: 0xD710, symBinAddr: 0x100011394, symSize: 0x2C }
  - { offset: 0xBF5F, size: 0x8, addend: 0x0, symName: __ZNSt3__124__libcpp_operator_deleteB8ne180100IJPvEEEvDpT_, symObjAddr: 0xD73C, symBinAddr: 0x1000113C0, symSize: 0x24 }
  - { offset: 0xBFEB, size: 0x8, addend: 0x0, symName: __ZNSt3__17launderB8ne180100INS_4pairIKNS_12basic_stringIcNS_11char_traitsIcEENS_9allocatorIcEEEEM11T_ArrayListFbvEEEEEPT_SE_, symObjAddr: 0xDA3C, symBinAddr: 0x1000116C0, symSize: 0x24 }
  - { offset: 0xC022, size: 0x8, addend: 0x0, symName: __ZNSt3__19__launderB8ne180100INS_4pairIKNS_12basic_stringIcNS_11char_traitsIcEENS_9allocatorIcEEEEM11T_ArrayListFbvEEEEEPT_SE_, symObjAddr: 0xDA60, symBinAddr: 0x1000116E4, symSize: 0x14 }
  - { offset: 0xC059, size: 0x8, addend: 0x0, symName: __ZNSt3__1neB8ne180100IPNS_12basic_stringIcNS_11char_traitsIcEENS_9allocatorIcEEEEEEbRKNS_11__wrap_iterIT_EESC_, symObjAddr: 0xE568, symBinAddr: 0x1000121EC, symSize: 0x34 }
  - { offset: 0xC09C, size: 0x8, addend: 0x0, symName: __ZNSt3__112__to_addressB8ne180100INS_12basic_stringIcNS_11char_traitsIcEENS_9allocatorIcEEEEEEPT_S8_, symObjAddr: 0xF5E4, symBinAddr: 0x100013268, symSize: 0x14 }
  - { offset: 0xC0D1, size: 0x8, addend: 0x0, symName: __ZNSt3__13maxB8ne180100ImEERKT_S3_S3_, symObjAddr: 0x10ADC, symBinAddr: 0x100014760, symSize: 0x2C }
  - { offset: 0xC2FE, size: 0x8, addend: 0x0, symName: __ZNSt3__120__throw_length_errorB8ne180100EPKc, symObjAddr: 0x10BC0, symBinAddr: 0x100014844, symSize: 0x68 }
  - { offset: 0xC326, size: 0x8, addend: 0x0, symName: __ZNSt3__13maxB8ne180100ImNS_6__lessIvvEEEERKT_S5_S5_T0_, symObjAddr: 0x10CE0, symBinAddr: 0x100014964, symSize: 0x1E0 }
  - { offset: 0xC386, size: 0x8, addend: 0x0, symName: __ZNSt3__119__allocate_at_leastB8ne180100INS_9allocatorINS_12basic_stringIcNS_11char_traitsIcEENS1_IcEEEEEEEENS_19__allocation_resultINS_16allocator_traitsIT_E7pointerEEERSA_m, symObjAddr: 0x1141C, symBinAddr: 0x1000150A0, symSize: 0x284 }
  - { offset: 0xC3CB, size: 0x8, addend: 0x0, symName: __ZNSt3__142__uninitialized_allocator_move_if_noexceptB8ne180100INS_9allocatorINS_12basic_stringIcNS_11char_traitsIcEENS1_IcEEEEEENS_16reverse_iteratorIPS6_EESA_SA_EET2_RT_T0_T1_SB_, symObjAddr: 0x11954, symBinAddr: 0x1000155D8, symSize: 0x58C }
  - { offset: 0xC480, size: 0x8, addend: 0x0, symName: __ZNSt3__14swapB8ne180100IPNS_12basic_stringIcNS_11char_traitsIcEENS_9allocatorIcEEEEEENS_9enable_ifIXaasr21is_move_constructibleIT_EE5valuesr18is_move_assignableIS9_EE5valueEvE4typeERS9_SC_, symObjAddr: 0x11F78, symBinAddr: 0x100015BFC, symSize: 0x134 }
  - { offset: 0xC4D1, size: 0x8, addend: 0x0, symName: __ZNSt3__122__make_exception_guardB8ne180100INS_29_AllocatorDestroyRangeReverseINS_9allocatorINS_12basic_stringIcNS_11char_traitsIcEENS2_IcEEEEEENS_16reverse_iteratorIPS7_EEEEEENS_28__exception_guard_exceptionsIT_EESE_, symObjAddr: 0x12140, symBinAddr: 0x100015DC4, symSize: 0x1E8 }
  - { offset: 0xC508, size: 0x8, addend: 0x0, symName: __ZNSt3__1neB8ne180100IPNS_12basic_stringIcNS_11char_traitsIcEENS_9allocatorIcEEEES7_EEbRKNS_16reverse_iteratorIT_EERKNS8_IT0_EE, symObjAddr: 0x1236C, symBinAddr: 0x100015FF0, symSize: 0x48 }
  - { offset: 0xC554, size: 0x8, addend: 0x0, symName: __ZNSt3__112__to_addressB8ne180100INS_16reverse_iteratorIPNS_12basic_stringIcNS_11char_traitsIcEENS_9allocatorIcEEEEEEvEEu7__decayIDTclsr19__to_address_helperIT_EE6__callclsr3stdE7declvalIRKSA_EEEEESC_, symObjAddr: 0x123E8, symBinAddr: 0x10001606C, symSize: 0x24 }
  - { offset: 0xC5B3, size: 0x8, addend: 0x0, symName: __ZNSt3__119__allocator_destroyB8ne180100INS_9allocatorINS_12basic_stringIcNS_11char_traitsIcEENS1_IcEEEEEENS_16reverse_iteratorINS8_IPS6_EEEESB_EEvRT_T0_T1_, symObjAddr: 0x12C74, symBinAddr: 0x1000168F8, symSize: 0x70 }
  - { offset: 0xC618, size: 0x8, addend: 0x0, symName: __ZNSt3__1neB8ne180100INS_16reverse_iteratorIPNS_12basic_stringIcNS_11char_traitsIcEENS_9allocatorIcEEEEEES9_EEbRKNS1_IT_EERKNS1_IT0_EE, symObjAddr: 0x12F24, symBinAddr: 0x100016BA8, symSize: 0x2BC }
  - { offset: 0xC666, size: 0x8, addend: 0x0, symName: __ZNSt3__112__to_addressB8ne180100INS_16reverse_iteratorINS1_IPNS_12basic_stringIcNS_11char_traitsIcEENS_9allocatorIcEEEEEEEEvEEu7__decayIDTclsr19__to_address_helperIT_EE6__callclsr3stdE7declvalIRKSB_EEEEESD_, symObjAddr: 0x1320C, symBinAddr: 0x100016E90, symSize: 0x24 }
  - { offset: 0xC6C5, size: 0x8, addend: 0x0, symName: __ZNSt3__116__tree_next_iterB8ne180100IPNS_15__tree_end_nodeIPNS_16__tree_node_baseIPvEEEES5_EET_T0_, symObjAddr: 0x13EF8, symBinAddr: 0x100017B7C, symSize: 0x134 }
  - { offset: 0xC703, size: 0x8, addend: 0x0, symName: __ZNSt3__110__tree_minB8ne180100IPNS_16__tree_node_baseIPvEEEET_S5_, symObjAddr: 0x1402C, symBinAddr: 0x100017CB0, symSize: 0xC4 }
  - { offset: 0xC738, size: 0x8, addend: 0x0, symName: __ZNSt3__1eqB8ne180100IPNS_12basic_stringIcNS_11char_traitsIcEENS_9allocatorIcEEEEEEbRKNS_11__wrap_iterIT_EESC_, symObjAddr: 0x143E8, symBinAddr: 0x10001806C, symSize: 0x48 }
  - { offset: 0xC7AE, size: 0x8, addend: 0x0, symName: __ZNSt3__1neB8ne180100ERKNS_14__map_iteratorINS_15__tree_iteratorINS_12__value_typeINS_12basic_stringIcNS_11char_traitsIcEENS_9allocatorIcEEEEM12T_LinkedListFbvEEEPNS_11__tree_nodeISC_PvEElEEEESK_, symObjAddr: 0x17228, symBinAddr: 0x10001AEAC, symSize: 0x30 }
  - { offset: 0xC7EB, size: 0x8, addend: 0x0, symName: __ZNSt3__1neB8ne180100ERKNS_15__tree_iteratorINS_12__value_typeINS_12basic_stringIcNS_11char_traitsIcEENS_9allocatorIcEEEEM12T_LinkedListFbvEEEPNS_11__tree_nodeISB_PvEElEESI_, symObjAddr: 0x17AAC, symBinAddr: 0x10001B730, symSize: 0x34 }
  - { offset: 0xC828, size: 0x8, addend: 0x0, symName: __ZNSt3__1eqB8ne180100ERKNS_15__tree_iteratorINS_12__value_typeINS_12basic_stringIcNS_11char_traitsIcEENS_9allocatorIcEEEEM12T_LinkedListFbvEEEPNS_11__tree_nodeISB_PvEElEESI_, symObjAddr: 0x17AE0, symBinAddr: 0x10001B764, symSize: 0xB8 }
  - { offset: 0xC865, size: 0x8, addend: 0x0, symName: __ZNSt3__17launderB8ne180100IKNS_4pairIKNS_12basic_stringIcNS_11char_traitsIcEENS_9allocatorIcEEEEM12T_LinkedListFbvEEEEEPT_SF_, symObjAddr: 0x18860, symBinAddr: 0x10001C4E4, symSize: 0x24 }
  - { offset: 0xC89C, size: 0x8, addend: 0x0, symName: __ZNSt3__19__launderB8ne180100IKNS_4pairIKNS_12basic_stringIcNS_11char_traitsIcEENS_9allocatorIcEEEEM12T_LinkedListFbvEEEEEPT_SF_, symObjAddr: 0x18884, symBinAddr: 0x10001C508, symSize: 0x14 }
  - { offset: 0xC8F1, size: 0x8, addend: 0x0, symName: __ZNSt3__112__destroy_atB8ne180100INS_4pairIKNS_12basic_stringIcNS_11char_traitsIcEENS_9allocatorIcEEEEM12T_LinkedListFbvEEELi0EEEvPT_, symObjAddr: 0x1AEAC, symBinAddr: 0x10001EB30, symSize: 0x24 }
  - { offset: 0xC95B, size: 0x8, addend: 0x0, symName: __ZNSt3__17launderB8ne180100INS_4pairIKNS_12basic_stringIcNS_11char_traitsIcEENS_9allocatorIcEEEEM12T_LinkedListFbvEEEEEPT_SE_, symObjAddr: 0x1B114, symBinAddr: 0x10001ED98, symSize: 0x24 }
  - { offset: 0xC992, size: 0x8, addend: 0x0, symName: __ZNSt3__19__launderB8ne180100INS_4pairIKNS_12basic_stringIcNS_11char_traitsIcEENS_9allocatorIcEEEEM12T_LinkedListFbvEEEEEPT_SE_, symObjAddr: 0x1B138, symBinAddr: 0x10001EDBC, symSize: 0x14 }
  - { offset: 0xC9FC, size: 0x8, addend: 0x0, symName: __ZNSt3__118__constexpr_strlenB8ne180100EPKc, symObjAddr: 0x1BBF8, symBinAddr: 0x10001F87C, symSize: 0x24 }
  - { offset: 0xCA28, size: 0x8, addend: 0x0, symName: __ZNSt3__116__pad_and_outputB8ne180100IcNS_11char_traitsIcEEEENS_19ostreambuf_iteratorIT_T0_EES6_PKS4_S8_S8_RNS_8ios_baseES4_, symObjAddr: 0x1C4DC, symBinAddr: 0x100020160, symSize: 0x7CC }
  - { offset: 0xCB05, size: 0x8, addend: 0x0, symName: __ZNSt3__112__to_addressB8ne180100IcEEPT_S2_, symObjAddr: 0x1D3DC, symBinAddr: 0x100021060, symSize: 0x14 }
  - { offset: 0xCB6D, size: 0x8, addend: 0x0, symName: __ZNSt3__19use_facetB8ne180100INS_5ctypeIcEEEERKT_RKNS_6localeE, symObjAddr: 0x1D96C, symBinAddr: 0x1000215F0, symSize: 0x2C }
  - { offset: 0xDE54, size: 0x8, addend: 0x0, symName: __ZSt28__throw_bad_array_new_lengthB8ne180100v, symObjAddr: 0xB478, symBinAddr: 0x10000F0FC, symSize: 0x38 }
  - { offset: 0xDEFF, size: 0x8, addend: 0x0, symName: _.str.64, symObjAddr: 0x1F4A0, symBinAddr: 0x100072860, symSize: 0x0 }
  - { offset: 0xDF10, size: 0x8, addend: 0x0, symName: _.str.65, symObjAddr: 0x1F500, symBinAddr: 0x1000728C0, symSize: 0x0 }
  - { offset: 0xDF21, size: 0x8, addend: 0x0, symName: _.str.66, symObjAddr: 0x1F540, symBinAddr: 0x100072900, symSize: 0x0 }
  - { offset: 0xDF32, size: 0x8, addend: 0x0, symName: _.str.67, symObjAddr: 0x1F580, symBinAddr: 0x100072940, symSize: 0x0 }
  - { offset: 0xDF4F, size: 0x8, addend: 0x0, symName: _.str.68, symObjAddr: 0x1F5A0, symBinAddr: 0x100072960, symSize: 0x0 }
  - { offset: 0xDF60, size: 0x8, addend: 0x0, symName: _.str.69, symObjAddr: 0x1F5C0, symBinAddr: 0x100072980, symSize: 0x0 }
  - { offset: 0xDF7E, size: 0x8, addend: 0x0, symName: _.str.70, symObjAddr: 0x1F5E0, symBinAddr: 0x1000729A0, symSize: 0x0 }
  - { offset: 0xDF9B, size: 0x8, addend: 0x0, symName: _.str.71, symObjAddr: 0x1F600, symBinAddr: 0x1000729C0, symSize: 0x0 }
  - { offset: 0xDFAC, size: 0x8, addend: 0x0, symName: _.str.72, symObjAddr: 0x1F640, symBinAddr: 0x100072A00, symSize: 0x0 }
  - { offset: 0xDFBD, size: 0x8, addend: 0x0, symName: _.str.73, symObjAddr: 0x1F660, symBinAddr: 0x100072A20, symSize: 0x0 }
  - { offset: 0xDFCE, size: 0x8, addend: 0x0, symName: _.str.74, symObjAddr: 0x1F680, symBinAddr: 0x100072A40, symSize: 0x0 }
  - { offset: 0xDFDF, size: 0x8, addend: 0x0, symName: _.str.75, symObjAddr: 0x1F6A0, symBinAddr: 0x100072A60, symSize: 0x0 }
  - { offset: 0xDFF0, size: 0x8, addend: 0x0, symName: _.str.76, symObjAddr: 0x1F6C0, symBinAddr: 0x100072A80, symSize: 0x0 }
  - { offset: 0xE001, size: 0x8, addend: 0x0, symName: _.str.77, symObjAddr: 0x1F6E0, symBinAddr: 0x100072AA0, symSize: 0x0 }
  - { offset: 0xE012, size: 0x8, addend: 0x0, symName: _.str.78, symObjAddr: 0x1F700, symBinAddr: 0x100072AC0, symSize: 0x0 }
  - { offset: 0xE023, size: 0x8, addend: 0x0, symName: _.str.79, symObjAddr: 0x1F720, symBinAddr: 0x100072AE0, symSize: 0x0 }
  - { offset: 0xE034, size: 0x8, addend: 0x0, symName: _.str.80, symObjAddr: 0x1F740, symBinAddr: 0x100072B00, symSize: 0x0 }
  - { offset: 0xE045, size: 0x8, addend: 0x0, symName: _.str.81, symObjAddr: 0x1F760, symBinAddr: 0x100072B20, symSize: 0x0 }
  - { offset: 0xE056, size: 0x8, addend: 0x0, symName: _.str.82, symObjAddr: 0x1F780, symBinAddr: 0x100072B40, symSize: 0x0 }
  - { offset: 0xE067, size: 0x8, addend: 0x0, symName: _.str.83, symObjAddr: 0x1F7A0, symBinAddr: 0x100072B60, symSize: 0x0 }
  - { offset: 0xE078, size: 0x8, addend: 0x0, symName: _.str.84, symObjAddr: 0x1F7C0, symBinAddr: 0x100072B80, symSize: 0x0 }
  - { offset: 0xE089, size: 0x8, addend: 0x0, symName: _.str.85, symObjAddr: 0x1F7E0, symBinAddr: 0x100072BA0, symSize: 0x0 }
  - { offset: 0xE09A, size: 0x8, addend: 0x0, symName: _.str.86, symObjAddr: 0x1F800, symBinAddr: 0x100072BC0, symSize: 0x0 }
  - { offset: 0xE0AB, size: 0x8, addend: 0x0, symName: _.str.87, symObjAddr: 0x1F820, symBinAddr: 0x100072BE0, symSize: 0x0 }
  - { offset: 0xE0BC, size: 0x8, addend: 0x0, symName: _.str.88, symObjAddr: 0x1F840, symBinAddr: 0x100072C00, symSize: 0x0 }
  - { offset: 0xE0CD, size: 0x8, addend: 0x0, symName: _.str.89, symObjAddr: 0x1F860, symBinAddr: 0x100072C20, symSize: 0x0 }
  - { offset: 0xE0DE, size: 0x8, addend: 0x0, symName: _.str.90, symObjAddr: 0x1F880, symBinAddr: 0x100072C40, symSize: 0x0 }
  - { offset: 0xE0EF, size: 0x8, addend: 0x0, symName: _.str.91, symObjAddr: 0x1F8A0, symBinAddr: 0x100072C60, symSize: 0x0 }
  - { offset: 0xE100, size: 0x8, addend: 0x0, symName: _.str.92, symObjAddr: 0x1F8C0, symBinAddr: 0x100072C80, symSize: 0x0 }
  - { offset: 0xE111, size: 0x8, addend: 0x0, symName: _.str.93, symObjAddr: 0x1F8E0, symBinAddr: 0x100072CA0, symSize: 0x0 }
  - { offset: 0xE122, size: 0x8, addend: 0x0, symName: _.str.94, symObjAddr: 0x1F900, symBinAddr: 0x100072CC0, symSize: 0x0 }
  - { offset: 0xE133, size: 0x8, addend: 0x0, symName: _.str.95, symObjAddr: 0x1F920, symBinAddr: 0x100072CE0, symSize: 0x0 }
  - { offset: 0xE144, size: 0x8, addend: 0x0, symName: _.str.96, symObjAddr: 0x1F940, symBinAddr: 0x100072D00, symSize: 0x0 }
  - { offset: 0xE155, size: 0x8, addend: 0x0, symName: _.str.97, symObjAddr: 0x1F960, symBinAddr: 0x100072D20, symSize: 0x0 }
  - { offset: 0xE166, size: 0x8, addend: 0x0, symName: _.str.98, symObjAddr: 0x1F980, symBinAddr: 0x100072D40, symSize: 0x0 }
  - { offset: 0xE177, size: 0x8, addend: 0x0, symName: _.str.99, symObjAddr: 0x1F9A0, symBinAddr: 0x100072D60, symSize: 0x0 }
  - { offset: 0xE188, size: 0x8, addend: 0x0, symName: _.str.100, symObjAddr: 0x1F9C0, symBinAddr: 0x100072D80, symSize: 0x0 }
  - { offset: 0xE199, size: 0x8, addend: 0x0, symName: _.str.101, symObjAddr: 0x1F9E0, symBinAddr: 0x100072DA0, symSize: 0x0 }
  - { offset: 0xE1AA, size: 0x8, addend: 0x0, symName: _.str.102, symObjAddr: 0x1FA00, symBinAddr: 0x100072DC0, symSize: 0x0 }
  - { offset: 0xE1BB, size: 0x8, addend: 0x0, symName: _.str.103, symObjAddr: 0x1FA20, symBinAddr: 0x100072DE0, symSize: 0x0 }
  - { offset: 0xE1CC, size: 0x8, addend: 0x0, symName: _.str.104, symObjAddr: 0x1FA40, symBinAddr: 0x100072E00, symSize: 0x0 }
  - { offset: 0xE1DD, size: 0x8, addend: 0x0, symName: _.str.105, symObjAddr: 0x1FA60, symBinAddr: 0x100072E20, symSize: 0x0 }
  - { offset: 0xE1EE, size: 0x8, addend: 0x0, symName: _.str.106, symObjAddr: 0x1FA80, symBinAddr: 0x100072E40, symSize: 0x0 }
  - { offset: 0xE1FF, size: 0x8, addend: 0x0, symName: _.str.107, symObjAddr: 0x1FAA0, symBinAddr: 0x100072E60, symSize: 0x0 }
  - { offset: 0xEEC7, size: 0x8, addend: 0x0, symName: __ZNSt3__16vectorINS_12basic_stringIcNS_11char_traitsIcEENS_9allocatorIcEEEENS4_IS6_EEE26__swap_out_circular_bufferERNS_14__split_bufferIS6_RS7_EE, symObjAddr: 0x101F4, symBinAddr: 0x100013E78, symSize: 0x564 }
  - { offset: 0xF787, size: 0x8, addend: 0x0, symName: _main, symObjAddr: 0x0, symBinAddr: 0x100003C84, symSize: 0x3FC }
  - { offset: 0xF7D1, size: 0x8, addend: 0x0, symName: __Z13printTestCasev, symObjAddr: 0x3FC, symBinAddr: 0x100004080, symSize: 0x918 }
  - { offset: 0xF84E, size: 0x8, addend: 0x0, symName: __ZNSt3__112basic_stringIcNS_11char_traitsIcEENS_9allocatorIcEEEC1B8ne180100ILi0EEEPKc, symObjAddr: 0xD14, symBinAddr: 0x100004998, symSize: 0x34 }
  - { offset: 0xF88C, size: 0x8, addend: 0x0, symName: __Z19handleTestUnitArrayiPPc, symObjAddr: 0xE10, symBinAddr: 0x100004A94, symSize: 0x694 }
  - { offset: 0xF8D6, size: 0x8, addend: 0x0, symName: __Z24handleTestUnitLinkedListiPPc, symObjAddr: 0x14A4, symBinAddr: 0x100005128, symSize: 0x694 }
  - { offset: 0xF920, size: 0x8, addend: 0x0, symName: __Z16handleTestRandomiPPc, symObjAddr: 0x1B38, symBinAddr: 0x1000057BC, symSize: 0xABC }
  - { offset: 0xF9E9, size: 0x8, addend: 0x0, symName: __ZN11T_ArrayListC1Ev, symObjAddr: 0x25F4, symBinAddr: 0x100006278, symSize: 0x2C }
  - { offset: 0xFA13, size: 0x8, addend: 0x0, symName: __ZN11T_ArrayList11runAllTestsEv, symObjAddr: 0x2668, symBinAddr: 0x1000062EC, symSize: 0x964 }
  - { offset: 0xFB37, size: 0x8, addend: 0x0, symName: __ZN11T_ArrayList7runTestERKNSt3__112basic_stringIcNS0_11char_traitsIcEENS0_9allocatorIcEEEE, symObjAddr: 0x2FCC, symBinAddr: 0x100006C50, symSize: 0x624 }
  - { offset: 0xFB7F, size: 0x8, addend: 0x0, symName: __ZN11T_ArrayListD1Ev, symObjAddr: 0x35F0, symBinAddr: 0x100007274, symSize: 0x2C }
  - { offset: 0xFBAB, size: 0x8, addend: 0x0, symName: __ZN12T_LinkedListC1Ev, symObjAddr: 0x361C, symBinAddr: 0x1000072A0, symSize: 0x2C }
  - { offset: 0xFBD5, size: 0x8, addend: 0x0, symName: __ZN12T_LinkedList11runAllTestsEv, symObjAddr: 0x3648, symBinAddr: 0x1000072CC, symSize: 0x964 }
  - { offset: 0xFCF9, size: 0x8, addend: 0x0, symName: __ZN12T_LinkedList7runTestERKNSt3__112basic_stringIcNS0_11char_traitsIcEENS0_9allocatorIcEEEE, symObjAddr: 0x3FAC, symBinAddr: 0x100007C30, symSize: 0x624 }
  - { offset: 0xFD41, size: 0x8, addend: 0x0, symName: __ZN12T_LinkedListD1Ev, symObjAddr: 0x45D0, symBinAddr: 0x100008254, symSize: 0x2C }
  - { offset: 0xFE46, size: 0x8, addend: 0x0, symName: __ZN10RandomTestD1Ev, symObjAddr: 0x45FC, symBinAddr: 0x100008280, symSize: 0x2C }
  - { offset: 0xFE72, size: 0x8, addend: 0x0, symName: __ZNSt3__113basic_ostreamIcNS_11char_traitsIcEEElsB8ne180100EPFRS3_S4_E, symObjAddr: 0x4628, symBinAddr: 0x1000082AC, symSize: 0x2C }
  - { offset: 0xFEA6, size: 0x8, addend: 0x0, symName: __ZN11T_ArrayListC2Ev, symObjAddr: 0x4784, symBinAddr: 0x100008408, symSize: 0x1FBC }
  - { offset: 0xFED1, size: 0x8, addend: 0x0, symName: __ZN11T_ArrayList12registerTestENSt3__112basic_stringIcNS0_11char_traitsIcEENS0_9allocatorIcEEEEMS_FbvE, symObjAddr: 0x6740, symBinAddr: 0x10000A3C4, symSize: 0x60C }
  - { offset: 0xFF05, size: 0x8, addend: 0x0, symName: __ZNSt3__13mapINS_12basic_stringIcNS_11char_traitsIcEENS_9allocatorIcEEEEM11T_ArrayListFbvENS_4lessIS6_EENS4_INS_4pairIKS6_S9_EEEEE4findB8ne180100ERSD_, symObjAddr: 0x6D7C, symBinAddr: 0x10000AA00, symSize: 0x2AC }
  - { offset: 0xFF3C, size: 0x8, addend: 0x0, symName: __ZNSt3__13mapINS_12basic_stringIcNS_11char_traitsIcEENS_9allocatorIcEEEEM11T_ArrayListFbvENS_4lessIS6_EENS4_INS_4pairIKS6_S9_EEEEE3endB8ne180100Ev, symObjAddr: 0x7028, symBinAddr: 0x10000ACAC, symSize: 0x2A4 }
  - { offset: 0xFF63, size: 0x8, addend: 0x0, symName: __ZNSt3__13mapINS_12basic_stringIcNS_11char_traitsIcEENS_9allocatorIcEEEEM11T_ArrayListFbvENS_4lessIS6_EENS4_INS_4pairIKS6_S9_EEEEEixERSD_, symObjAddr: 0x730C, symBinAddr: 0x10000AF90, symSize: 0x304 }
  - { offset: 0xFF9C, size: 0x8, addend: 0x0, symName: __ZNSt3__16__treeINS_12__value_typeINS_12basic_stringIcNS_11char_traitsIcEENS_9allocatorIcEEEEM11T_ArrayListFbvEEENS_19__map_value_compareIS7_SB_NS_4lessIS7_EELb1EEENS5_ISB_EEE4findIS7_EENS_15__tree_iteratorISB_PNS_11__tree_nodeISB_PvEElEERKT_, symObjAddr: 0x76FC, symBinAddr: 0x10000B380, symSize: 0x3EC }
  - { offset: 0xFFF1, size: 0x8, addend: 0x0, symName: __ZNSt3__114__map_iteratorINS_15__tree_iteratorINS_12__value_typeINS_12basic_stringIcNS_11char_traitsIcEENS_9allocatorIcEEEEM11T_ArrayListFbvEEEPNS_11__tree_nodeISC_PvEElEEEC1B8ne180100ESH_, symObjAddr: 0x7AE8, symBinAddr: 0x10000B76C, symSize: 0x230 }
  - { offset: 0x1002F, size: 0x8, addend: 0x0, symName: __ZNSt3__16__treeINS_12__value_typeINS_12basic_stringIcNS_11char_traitsIcEENS_9allocatorIcEEEEM11T_ArrayListFbvEEENS_19__map_value_compareIS7_SB_NS_4lessIS7_EELb1EEENS5_ISB_EEE13__lower_boundIS7_EENS_15__tree_iteratorISB_PNS_11__tree_nodeISB_PvEElEERKT_SN_PNS_15__tree_end_nodeIPNS_16__tree_node_baseISL_EEEE, symObjAddr: 0x7D18, symBinAddr: 0x10000B99C, symSize: 0x2D8 }
  - { offset: 0x10091, size: 0x8, addend: 0x0, symName: __ZNKSt3__16__treeINS_12__value_typeINS_12basic_stringIcNS_11char_traitsIcEENS_9allocatorIcEEEEM11T_ArrayListFbvEEENS_19__map_value_compareIS7_SB_NS_4lessIS7_EELb1EEENS5_ISB_EEE6__rootB8ne180100Ev, symObjAddr: 0x7FF0, symBinAddr: 0x10000BC74, symSize: 0x6C }
  - { offset: 0x100B7, size: 0x8, addend: 0x0, symName: __ZNSt3__16__treeINS_12__value_typeINS_12basic_stringIcNS_11char_traitsIcEENS_9allocatorIcEEEEM11T_ArrayListFbvEEENS_19__map_value_compareIS7_SB_NS_4lessIS7_EELb1EEENS5_ISB_EEE10__end_nodeB8ne180100Ev, symObjAddr: 0x805C, symBinAddr: 0x10000BCE0, symSize: 0x2C }
  - { offset: 0x100DD, size: 0x8, addend: 0x0, symName: __ZNSt3__16__treeINS_12__value_typeINS_12basic_stringIcNS_11char_traitsIcEENS_9allocatorIcEEEEM11T_ArrayListFbvEEENS_19__map_value_compareIS7_SB_NS_4lessIS7_EELb1EEENS5_ISB_EEE3endB8ne180100Ev, symObjAddr: 0x8088, symBinAddr: 0x10000BD0C, symSize: 0x1FC }
  - { offset: 0x10104, size: 0x8, addend: 0x0, symName: __ZNSt3__16__treeINS_12__value_typeINS_12basic_stringIcNS_11char_traitsIcEENS_9allocatorIcEEEEM11T_ArrayListFbvEEENS_19__map_value_compareIS7_SB_NS_4lessIS7_EELb1EEENS5_ISB_EEE10value_compB8ne180100Ev, symObjAddr: 0x8284, symBinAddr: 0x10000BF08, symSize: 0x28 }
  - { offset: 0x1012A, size: 0x8, addend: 0x0, symName: __ZNKSt3__119__map_value_compareINS_12basic_stringIcNS_11char_traitsIcEENS_9allocatorIcEEEENS_12__value_typeIS6_M11T_ArrayListFbvEEENS_4lessIS6_EELb1EEclB8ne180100ERKS6_RKSB_, symObjAddr: 0x82AC, symBinAddr: 0x10000BF30, symSize: 0x50 }
  - { offset: 0x1016E, size: 0x8, addend: 0x0, symName: __ZNKSt3__115__tree_iteratorINS_12__value_typeINS_12basic_stringIcNS_11char_traitsIcEENS_9allocatorIcEEEEM11T_ArrayListFbvEEEPNS_11__tree_nodeISB_PvEElEdeB8ne180100Ev, symObjAddr: 0x82FC, symBinAddr: 0x10000BF80, symSize: 0x28 }
  - { offset: 0x10194, size: 0x8, addend: 0x0, symName: __ZNKSt3__119__map_value_compareINS_12basic_stringIcNS_11char_traitsIcEENS_9allocatorIcEEEENS_12__value_typeIS6_M11T_ArrayListFbvEEENS_4lessIS6_EELb1EEclB8ne180100ERKSB_RKS6_, symObjAddr: 0x8324, symBinAddr: 0x10000BFA8, symSize: 0x48 }
  - { offset: 0x101D8, size: 0x8, addend: 0x0, symName: __ZNSt3__115__tree_iteratorINS_12__value_typeINS_12basic_stringIcNS_11char_traitsIcEENS_9allocatorIcEEEEM11T_ArrayListFbvEEEPNS_11__tree_nodeISB_PvEElEC1B8ne180100EPNS_15__tree_end_nodeIPNS_16__tree_node_baseISD_EEEE, symObjAddr: 0x836C, symBinAddr: 0x10000BFF0, symSize: 0x34 }
  - { offset: 0x10211, size: 0x8, addend: 0x0, symName: __ZNKSt3__14lessINS_12basic_stringIcNS_11char_traitsIcEENS_9allocatorIcEEEEEclB8ne180100ERKS6_S9_, symObjAddr: 0x83A0, symBinAddr: 0x10000C024, symSize: 0x34 }
  - { offset: 0x10255, size: 0x8, addend: 0x0, symName: __ZNKSt3__112__value_typeINS_12basic_stringIcNS_11char_traitsIcEENS_9allocatorIcEEEEM11T_ArrayListFbvEE11__get_valueB8ne180100Ev, symObjAddr: 0x83D4, symBinAddr: 0x10000C058, symSize: 0x24 }
  - { offset: 0x1027B, size: 0x8, addend: 0x0, symName: __ZNKSt3__112basic_stringIcNS_11char_traitsIcEENS_9allocatorIcEEE7compareB8ne180100ERKS5_, symObjAddr: 0x8430, symBinAddr: 0x10000C0B4, symSize: 0x230 }
  - { offset: 0x102B4, size: 0x8, addend: 0x0, symName: __ZNKSt3__112basic_stringIcNS_11char_traitsIcEENS_9allocatorIcEEE7compareINS_17basic_string_viewIcS2_EELi0EEEiRKT_, symObjAddr: 0x8660, symBinAddr: 0x10000C2E4, symSize: 0x534 }
  - { offset: 0x10345, size: 0x8, addend: 0x0, symName: __ZNKSt3__112basic_stringIcNS_11char_traitsIcEENS_9allocatorIcEEEcvNS_17basic_string_viewIcS2_EEB8ne180100Ev, symObjAddr: 0x8B94, symBinAddr: 0x10000C818, symSize: 0x220 }
  - { offset: 0x1036C, size: 0x8, addend: 0x0, symName: __ZNKSt3__112basic_stringIcNS_11char_traitsIcEENS_9allocatorIcEEE4sizeB8ne180100Ev, symObjAddr: 0x8DB4, symBinAddr: 0x10000CA38, symSize: 0x54 }
  - { offset: 0x10392, size: 0x8, addend: 0x0, symName: __ZNKSt3__117basic_string_viewIcNS_11char_traitsIcEEE4sizeB8ne180100Ev, symObjAddr: 0x8E08, symBinAddr: 0x10000CA8C, symSize: 0x64 }
  - { offset: 0x103B8, size: 0x8, addend: 0x0, symName: __ZNSt3__111char_traitsIcE7compareB8ne180100EPKcS3_m, symObjAddr: 0x8E6C, symBinAddr: 0x10000CAF0, symSize: 0x34 }
  - { offset: 0x103F7, size: 0x8, addend: 0x0, symName: __ZNKSt3__112basic_stringIcNS_11char_traitsIcEENS_9allocatorIcEEE4dataB8ne180100Ev, symObjAddr: 0x8EA0, symBinAddr: 0x10000CB24, symSize: 0x28 }
  - { offset: 0x1041D, size: 0x8, addend: 0x0, symName: __ZNKSt3__117basic_string_viewIcNS_11char_traitsIcEEE4dataB8ne180100Ev, symObjAddr: 0x8EC8, symBinAddr: 0x10000CB4C, symSize: 0x60 }
  - { offset: 0x10443, size: 0x8, addend: 0x0, symName: __ZNKSt3__112basic_stringIcNS_11char_traitsIcEENS_9allocatorIcEEE9__is_longB8ne180100Ev, symObjAddr: 0x8F54, symBinAddr: 0x10000CBD8, symSize: 0xA4 }
  - { offset: 0x10469, size: 0x8, addend: 0x0, symName: __ZNKSt3__112basic_stringIcNS_11char_traitsIcEENS_9allocatorIcEEE15__get_long_sizeB8ne180100Ev, symObjAddr: 0x8FF8, symBinAddr: 0x10000CC7C, symSize: 0x70 }
  - { offset: 0x1048F, size: 0x8, addend: 0x0, symName: __ZNKSt3__112basic_stringIcNS_11char_traitsIcEENS_9allocatorIcEEE16__get_short_sizeB8ne180100Ev, symObjAddr: 0x9068, symBinAddr: 0x10000CCEC, symSize: 0xA0 }
  - { offset: 0x104B5, size: 0x8, addend: 0x0, symName: __ZNKSt3__117__compressed_pairINS_12basic_stringIcNS_11char_traitsIcEENS_9allocatorIcEEE5__repES5_E5firstB8ne180100Ev, symObjAddr: 0x9108, symBinAddr: 0x10000CD8C, symSize: 0x24 }
  - { offset: 0x104DB, size: 0x8, addend: 0x0, symName: __ZNKSt3__122__compressed_pair_elemINS_12basic_stringIcNS_11char_traitsIcEENS_9allocatorIcEEE5__repELi0ELb0EE5__getB8ne180100Ev, symObjAddr: 0x912C, symBinAddr: 0x10000CDB0, symSize: 0x14 }
  - { offset: 0x10501, size: 0x8, addend: 0x0, symName: __ZNKSt3__112basic_stringIcNS_11char_traitsIcEENS_9allocatorIcEEE13__get_pointerB8ne180100Ev, symObjAddr: 0x9154, symBinAddr: 0x10000CDD8, symSize: 0x54 }
  - { offset: 0x10527, size: 0x8, addend: 0x0, symName: __ZNKSt3__112basic_stringIcNS_11char_traitsIcEENS_9allocatorIcEEE18__get_long_pointerB8ne180100Ev, symObjAddr: 0x91A8, symBinAddr: 0x10000CE2C, symSize: 0x6C }
  - { offset: 0x1054D, size: 0x8, addend: 0x0, symName: __ZNKSt3__112basic_stringIcNS_11char_traitsIcEENS_9allocatorIcEEE19__get_short_pointerB8ne180100Ev, symObjAddr: 0x9214, symBinAddr: 0x10000CE98, symSize: 0x28 }
  - { offset: 0x10573, size: 0x8, addend: 0x0, symName: __ZNSt3__114pointer_traitsIPKcE10pointer_toB8ne180100ERS1_, symObjAddr: 0x923C, symBinAddr: 0x10000CEC0, symSize: 0x14 }
  - { offset: 0x105A0, size: 0x8, addend: 0x0, symName: __ZNKSt3__16__lessIvvEclB8ne180100ImmEEbRKT_RKT0_, symObjAddr: 0x9430, symBinAddr: 0x10000D0B4, symSize: 0xBC }
  - { offset: 0x105F4, size: 0x8, addend: 0x0, symName: __ZNSt3__117basic_string_viewIcNS_11char_traitsIcEEEC1B8ne180100EPKcm, symObjAddr: 0x94EC, symBinAddr: 0x10000D170, symSize: 0x3C }
  - { offset: 0x1063C, size: 0x8, addend: 0x0, symName: __ZNSt3__117basic_string_viewIcNS_11char_traitsIcEEEC2B8ne180100EPKcm, symObjAddr: 0x9528, symBinAddr: 0x10000D1AC, symSize: 0xBC }
  - { offset: 0x10684, size: 0x8, addend: 0x0, symName: __ZNSt3__115__tree_iteratorINS_12__value_typeINS_12basic_stringIcNS_11char_traitsIcEENS_9allocatorIcEEEEM11T_ArrayListFbvEEEPNS_11__tree_nodeISB_PvEElEC2B8ne180100EPNS_15__tree_end_nodeIPNS_16__tree_node_baseISD_EEEE, symObjAddr: 0x961C, symBinAddr: 0x10000D2A0, symSize: 0x70 }
  - { offset: 0x106BD, size: 0x8, addend: 0x0, symName: __ZNKSt3__16__treeINS_12__value_typeINS_12basic_stringIcNS_11char_traitsIcEENS_9allocatorIcEEEEM11T_ArrayListFbvEEENS_19__map_value_compareIS7_SB_NS_4lessIS7_EELb1EEENS5_ISB_EEE10__end_nodeB8ne180100Ev, symObjAddr: 0x968C, symBinAddr: 0x10000D310, symSize: 0x2C }
  - { offset: 0x106E3, size: 0x8, addend: 0x0, symName: __ZNSt3__114pointer_traitsIPNS_15__tree_end_nodeIPNS_16__tree_node_baseIPvEEEEE10pointer_toB8ne180100ERS6_, symObjAddr: 0x96B8, symBinAddr: 0x10000D33C, symSize: 0x14 }
  - { offset: 0x10706, size: 0x8, addend: 0x0, symName: __ZNKSt3__117__compressed_pairINS_15__tree_end_nodeIPNS_16__tree_node_baseIPvEEEENS_9allocatorINS_11__tree_nodeINS_12__value_typeINS_12basic_stringIcNS_11char_traitsIcEENS7_IcEEEEM11T_ArrayListFbvEEES3_EEEEE5firstB8ne180100Ev, symObjAddr: 0x96CC, symBinAddr: 0x10000D350, symSize: 0x24 }
  - { offset: 0x1072C, size: 0x8, addend: 0x0, symName: __ZNKSt3__122__compressed_pair_elemINS_15__tree_end_nodeIPNS_16__tree_node_baseIPvEEEELi0ELb0EE5__getB8ne180100Ev, symObjAddr: 0x96F0, symBinAddr: 0x10000D374, symSize: 0x14 }
  - { offset: 0x10752, size: 0x8, addend: 0x0, symName: __ZNSt3__117__compressed_pairINS_15__tree_end_nodeIPNS_16__tree_node_baseIPvEEEENS_9allocatorINS_11__tree_nodeINS_12__value_typeINS_12basic_stringIcNS_11char_traitsIcEENS7_IcEEEEM11T_ArrayListFbvEEES3_EEEEE5firstB8ne180100Ev, symObjAddr: 0x9704, symBinAddr: 0x10000D388, symSize: 0x24 }
  - { offset: 0x10778, size: 0x8, addend: 0x0, symName: __ZNSt3__122__compressed_pair_elemINS_15__tree_end_nodeIPNS_16__tree_node_baseIPvEEEELi0ELb0EE5__getB8ne180100Ev, symObjAddr: 0x9728, symBinAddr: 0x10000D3AC, symSize: 0x14 }
  - { offset: 0x1079E, size: 0x8, addend: 0x0, symName: __ZNSt3__117__compressed_pairImNS_19__map_value_compareINS_12basic_stringIcNS_11char_traitsIcEENS_9allocatorIcEEEENS_12__value_typeIS7_M11T_ArrayListFbvEEENS_4lessIS7_EELb1EEEE6secondB8ne180100Ev, symObjAddr: 0x973C, symBinAddr: 0x10000D3C0, symSize: 0x24 }
  - { offset: 0x107C4, size: 0x8, addend: 0x0, symName: __ZNSt3__122__compressed_pair_elemINS_19__map_value_compareINS_12basic_stringIcNS_11char_traitsIcEENS_9allocatorIcEEEENS_12__value_typeIS7_M11T_ArrayListFbvEEENS_4lessIS7_EELb1EEELi1ELb1EE5__getB8ne180100Ev, symObjAddr: 0x9760, symBinAddr: 0x10000D3E4, symSize: 0x14 }
  - { offset: 0x107EA, size: 0x8, addend: 0x0, symName: __ZNKSt3__115__tree_iteratorINS_12__value_typeINS_12basic_stringIcNS_11char_traitsIcEENS_9allocatorIcEEEEM11T_ArrayListFbvEEEPNS_11__tree_nodeISB_PvEElE8__get_npB8ne180100Ev, symObjAddr: 0x9774, symBinAddr: 0x10000D3F8, symSize: 0x60 }
  - { offset: 0x10810, size: 0x8, addend: 0x0, symName: __ZNSt3__114__map_iteratorINS_15__tree_iteratorINS_12__value_typeINS_12basic_stringIcNS_11char_traitsIcEENS_9allocatorIcEEEEM11T_ArrayListFbvEEEPNS_11__tree_nodeISC_PvEElEEEC2B8ne180100ESH_, symObjAddr: 0x97D4, symBinAddr: 0x10000D458, symSize: 0x1FC }
  - { offset: 0x1084E, size: 0x8, addend: 0x0, symName: __ZNSt3__112basic_stringIcNS_11char_traitsIcEENS_9allocatorIcEEEC1B8ne180100EOS5_, symObjAddr: 0x99D0, symBinAddr: 0x10000D654, symSize: 0x34 }
  - { offset: 0x10887, size: 0x8, addend: 0x0, symName: __ZNSt3__112basic_stringIcNS_11char_traitsIcEENS_9allocatorIcEEEC2B8ne180100EOS5_, symObjAddr: 0x9A04, symBinAddr: 0x10000D688, symSize: 0x304 }
  - { offset: 0x108F3, size: 0x8, addend: 0x0, symName: __ZZNSt3__112basic_stringIcNS_11char_traitsIcEENS_9allocatorIcEEEC1B8ne180100EOS5_ENKUlRS5_E_clES7_, symObjAddr: 0x9D08, symBinAddr: 0x10000D98C, symSize: 0x40 }
  - { offset: 0x1092C, size: 0x8, addend: 0x0, symName: __ZNSt3__117__compressed_pairINS_12basic_stringIcNS_11char_traitsIcEENS_9allocatorIcEEE5__repES5_E5firstB8ne180100Ev, symObjAddr: 0x9D48, symBinAddr: 0x10000D9CC, symSize: 0x24 }
  - { offset: 0x10952, size: 0x8, addend: 0x0, symName: __ZNKSt3__112basic_stringIcNS_11char_traitsIcEENS_9allocatorIcEEE14__annotate_newB8ne180100Em, symObjAddr: 0x9D6C, symBinAddr: 0x10000D9F0, symSize: 0x14 }
  - { offset: 0x10987, size: 0x8, addend: 0x0, symName: __ZNKSt3__112basic_stringIcNS_11char_traitsIcEENS_9allocatorIcEEE17__annotate_deleteB8ne180100Ev, symObjAddr: 0x9D80, symBinAddr: 0x10000DA04, symSize: 0x10 }
  - { offset: 0x109AD, size: 0x8, addend: 0x0, symName: __ZNSt3__122__compressed_pair_elemINS_12basic_stringIcNS_11char_traitsIcEENS_9allocatorIcEEE5__repELi0ELb0EE5__getB8ne180100Ev, symObjAddr: 0x9D90, symBinAddr: 0x10000DA14, symSize: 0x14 }
  - { offset: 0x109E8, size: 0x8, addend: 0x0, symName: __ZNSt3__16__treeINS_12__value_typeINS_12basic_stringIcNS_11char_traitsIcEENS_9allocatorIcEEEEM11T_ArrayListFbvEEENS_19__map_value_compareIS7_SB_NS_4lessIS7_EELb1EEENS5_ISB_EEE25__emplace_unique_key_argsIS7_JRKNS_21piecewise_construct_tENS_5tupleIJRKS7_EEENSM_IJEEEEEENS_4pairINS_15__tree_iteratorISB_PNS_11__tree_nodeISB_PvEElEEbEERKT_DpOT0_, symObjAddr: 0x9DA4, symBinAddr: 0x10000DA28, symSize: 0x518 }
  - { offset: 0x10ACE, size: 0x8, addend: 0x0, symName: __ZNKSt3__115__tree_iteratorINS_12__value_typeINS_12basic_stringIcNS_11char_traitsIcEENS_9allocatorIcEEEEM11T_ArrayListFbvEEEPNS_11__tree_nodeISB_PvEElEptB8ne180100Ev, symObjAddr: 0xA4B0, symBinAddr: 0x10000E134, symSize: 0x2C }
  - { offset: 0x10AF4, size: 0x8, addend: 0x0, symName: __ZNSt3__112__value_typeINS_12basic_stringIcNS_11char_traitsIcEENS_9allocatorIcEEEEM11T_ArrayListFbvEE11__get_valueB8ne180100Ev, symObjAddr: 0xA4DC, symBinAddr: 0x10000E160, symSize: 0x24 }
  - { offset: 0x10B1A, size: 0x8, addend: 0x0, symName: __ZNSt3__16__treeINS_12__value_typeINS_12basic_stringIcNS_11char_traitsIcEENS_9allocatorIcEEEEM11T_ArrayListFbvEEENS_19__map_value_compareIS7_SB_NS_4lessIS7_EELb1EEENS5_ISB_EEE12__find_equalIS7_EERPNS_16__tree_node_baseIPvEERPNS_15__tree_end_nodeISM_EERKT_, symObjAddr: 0xA500, symBinAddr: 0x10000E184, symSize: 0x3F0 }
  - { offset: 0x10B87, size: 0x8, addend: 0x0, symName: __ZNSt3__16__treeINS_12__value_typeINS_12basic_stringIcNS_11char_traitsIcEENS_9allocatorIcEEEEM11T_ArrayListFbvEEENS_19__map_value_compareIS7_SB_NS_4lessIS7_EELb1EEENS5_ISB_EEE16__construct_nodeIJRKNS_21piecewise_construct_tENS_5tupleIJRKS7_EEENSM_IJEEEEEENS_10unique_ptrINS_11__tree_nodeISB_PvEENS_22__tree_node_destructorINS5_ISU_EEEEEEDpOT_, symObjAddr: 0xA8F0, symBinAddr: 0x10000E574, symSize: 0x3A8 }
  - { offset: 0x10C16, size: 0x8, addend: 0x0, symName: __ZNSt3__16__treeINS_12__value_typeINS_12basic_stringIcNS_11char_traitsIcEENS_9allocatorIcEEEEM11T_ArrayListFbvEEENS_19__map_value_compareIS7_SB_NS_4lessIS7_EELb1EEENS5_ISB_EEE16__insert_node_atEPNS_15__tree_end_nodeIPNS_16__tree_node_baseIPvEEEERSM_SM_, symObjAddr: 0xAC98, symBinAddr: 0x10000E91C, symSize: 0x370 }
  - { offset: 0x10C6B, size: 0x8, addend: 0x0, symName: __ZNKSt3__110unique_ptrINS_11__tree_nodeINS_12__value_typeINS_12basic_stringIcNS_11char_traitsIcEENS_9allocatorIcEEEEM11T_ArrayListFbvEEEPvEENS_22__tree_node_destructorINS6_ISE_EEEEE3getB8ne180100Ev, symObjAddr: 0xB008, symBinAddr: 0x10000EC8C, symSize: 0x6C }
  - { offset: 0x10C91, size: 0x8, addend: 0x0, symName: __ZNSt3__110unique_ptrINS_11__tree_nodeINS_12__value_typeINS_12basic_stringIcNS_11char_traitsIcEENS_9allocatorIcEEEEM11T_ArrayListFbvEEEPvEENS_22__tree_node_destructorINS6_ISE_EEEEE7releaseB8ne180100Ev, symObjAddr: 0xB074, symBinAddr: 0x10000ECF8, symSize: 0xB8 }
  - { offset: 0x10CC6, size: 0x8, addend: 0x0, symName: __ZNSt3__110unique_ptrINS_11__tree_nodeINS_12__value_typeINS_12basic_stringIcNS_11char_traitsIcEENS_9allocatorIcEEEEM11T_ArrayListFbvEEEPvEENS_22__tree_node_destructorINS6_ISE_EEEEED1B8ne180100Ev, symObjAddr: 0xB12C, symBinAddr: 0x10000EDB0, symSize: 0x2C }
  - { offset: 0x10CF0, size: 0x8, addend: 0x0, symName: __ZNSt3__115__tree_iteratorINS_12__value_typeINS_12basic_stringIcNS_11char_traitsIcEENS_9allocatorIcEEEEM11T_ArrayListFbvEEEPNS_11__tree_nodeISB_PvEElEC1B8ne180100ESF_, symObjAddr: 0xB158, symBinAddr: 0x10000EDDC, symSize: 0x34 }
  - { offset: 0x10D34, size: 0x8, addend: 0x0, symName: __ZNSt3__14pairINS_15__tree_iteratorINS_12__value_typeINS_12basic_stringIcNS_11char_traitsIcEENS_9allocatorIcEEEEM11T_ArrayListFbvEEEPNS_11__tree_nodeISC_PvEElEEbEC1B8ne180100ISH_RbLi0EEEOT_OT0_, symObjAddr: 0xB18C, symBinAddr: 0x10000EE10, symSize: 0x3C }
  - { offset: 0x10D92, size: 0x8, addend: 0x0, symName: __ZNKSt3__16__treeINS_12__value_typeINS_12basic_stringIcNS_11char_traitsIcEENS_9allocatorIcEEEEM11T_ArrayListFbvEEENS_19__map_value_compareIS7_SB_NS_4lessIS7_EELb1EEENS5_ISB_EEE10__root_ptrB8ne180100Ev, symObjAddr: 0xB1C8, symBinAddr: 0x10000EE4C, symSize: 0x24 }
  - { offset: 0x10DB8, size: 0x8, addend: 0x0, symName: __ZNSt3__16__treeINS_12__value_typeINS_12basic_stringIcNS_11char_traitsIcEENS_9allocatorIcEEEEM11T_ArrayListFbvEEENS_19__map_value_compareIS7_SB_NS_4lessIS7_EELb1EEENS5_ISB_EEE12__node_allocB8ne180100Ev, symObjAddr: 0xB1EC, symBinAddr: 0x10000EE70, symSize: 0x28 }
  - { offset: 0x10DDE, size: 0x8, addend: 0x0, symName: __ZNSt3__116allocator_traitsINS_9allocatorINS_11__tree_nodeINS_12__value_typeINS_12basic_stringIcNS_11char_traitsIcEENS1_IcEEEEM11T_ArrayListFbvEEEPvEEEEE8allocateB8ne180100ERSF_m, symObjAddr: 0xB214, symBinAddr: 0x10000EE98, symSize: 0x2C }
  - { offset: 0x10E11, size: 0x8, addend: 0x0, symName: __ZNSt3__122__tree_node_destructorINS_9allocatorINS_11__tree_nodeINS_12__value_typeINS_12basic_stringIcNS_11char_traitsIcEENS1_IcEEEEM11T_ArrayListFbvEEEPvEEEEEC1B8ne180100ERSF_b, symObjAddr: 0xB240, symBinAddr: 0x10000EEC4, symSize: 0x48 }
  - { offset: 0x10E5F, size: 0x8, addend: 0x0, symName: __ZNSt3__110unique_ptrINS_11__tree_nodeINS_12__value_typeINS_12basic_stringIcNS_11char_traitsIcEENS_9allocatorIcEEEEM11T_ArrayListFbvEEEPvEENS_22__tree_node_destructorINS6_ISE_EEEEEC1B8ne180100ILb1EvEEPSE_NS_16__dependent_typeINS_27__unique_ptr_deleter_sfinaeISH_EEXT_EE20__good_rval_ref_typeE, symObjAddr: 0xB288, symBinAddr: 0x10000EF0C, symSize: 0x3C }
  - { offset: 0x10EB0, size: 0x8, addend: 0x0, symName: __ZNSt3__116allocator_traitsINS_9allocatorINS_11__tree_nodeINS_12__value_typeINS_12basic_stringIcNS_11char_traitsIcEENS1_IcEEEEM11T_ArrayListFbvEEEPvEEEEE9constructB8ne180100INS_4pairIKS8_SB_EEJRKNS_21piecewise_construct_tENS_5tupleIJRSJ_EEENSO_IJEEEEvEEvRSF_PT_DpOT0_, symObjAddr: 0xB2C4, symBinAddr: 0x10000EF48, symSize: 0x44 }
  - { offset: 0x10F2F, size: 0x8, addend: 0x0, symName: __ZNSt3__122__tree_key_value_typesINS_12__value_typeINS_12basic_stringIcNS_11char_traitsIcEENS_9allocatorIcEEEEM11T_ArrayListFbvEEEE9__get_ptrB8ne180100ERSB_, symObjAddr: 0xB308, symBinAddr: 0x10000EF8C, symSize: 0x24 }
  - { offset: 0x10F53, size: 0x8, addend: 0x0, symName: __ZNKSt3__110unique_ptrINS_11__tree_nodeINS_12__value_typeINS_12basic_stringIcNS_11char_traitsIcEENS_9allocatorIcEEEEM11T_ArrayListFbvEEEPvEENS_22__tree_node_destructorINS6_ISE_EEEEEptB8ne180100Ev, symObjAddr: 0xB32C, symBinAddr: 0x10000EFB0, symSize: 0x6C }
  - { offset: 0x10F79, size: 0x8, addend: 0x0, symName: __ZNSt3__110unique_ptrINS_11__tree_nodeINS_12__value_typeINS_12basic_stringIcNS_11char_traitsIcEENS_9allocatorIcEEEEM11T_ArrayListFbvEEEPvEENS_22__tree_node_destructorINS6_ISE_EEEEE11get_deleterB8ne180100Ev, symObjAddr: 0xB398, symBinAddr: 0x10000F01C, symSize: 0x24 }
  - { offset: 0x10F9F, size: 0x8, addend: 0x0, symName: __ZNSt3__117__compressed_pairINS_15__tree_end_nodeIPNS_16__tree_node_baseIPvEEEENS_9allocatorINS_11__tree_nodeINS_12__value_typeINS_12basic_stringIcNS_11char_traitsIcEENS7_IcEEEEM11T_ArrayListFbvEEES3_EEEEE6secondB8ne180100Ev, symObjAddr: 0xB3BC, symBinAddr: 0x10000F040, symSize: 0x24 }
  - { offset: 0x10FC5, size: 0x8, addend: 0x0, symName: __ZNSt3__122__compressed_pair_elemINS_9allocatorINS_11__tree_nodeINS_12__value_typeINS_12basic_stringIcNS_11char_traitsIcEENS1_IcEEEEM11T_ArrayListFbvEEEPvEEEELi1ELb1EE5__getB8ne180100Ev, symObjAddr: 0xB3E0, symBinAddr: 0x10000F064, symSize: 0x14 }
  - { offset: 0x10FEB, size: 0x8, addend: 0x0, symName: __ZNSt3__19allocatorINS_11__tree_nodeINS_12__value_typeINS_12basic_stringIcNS_11char_traitsIcEENS0_IcEEEEM11T_ArrayListFbvEEEPvEEE8allocateB8ne180100Em, symObjAddr: 0xB3F4, symBinAddr: 0x10000F078, symSize: 0x60 }
  - { offset: 0x11029, size: 0x8, addend: 0x0, symName: __ZNSt3__116allocator_traitsINS_9allocatorINS_11__tree_nodeINS_12__value_typeINS_12basic_stringIcNS_11char_traitsIcEENS1_IcEEEEM11T_ArrayListFbvEEEPvEEEEE8max_sizeB8ne180100ISF_vEEmRKSF_, symObjAddr: 0xB454, symBinAddr: 0x10000F0D8, symSize: 0x24 }
  - { offset: 0x11057, size: 0x8, addend: 0x0, symName: __ZNKSt3__19allocatorINS_11__tree_nodeINS_12__value_typeINS_12basic_stringIcNS_11char_traitsIcEENS0_IcEEEEM11T_ArrayListFbvEEEPvEEE8max_sizeB8ne180100Ev, symObjAddr: 0xB510, symBinAddr: 0x10000F194, symSize: 0x20 }
  - { offset: 0x1107D, size: 0x8, addend: 0x0, symName: __ZNSt3__122__tree_node_destructorINS_9allocatorINS_11__tree_nodeINS_12__value_typeINS_12basic_stringIcNS_11char_traitsIcEENS1_IcEEEEM11T_ArrayListFbvEEEPvEEEEEC2B8ne180100ERSF_b, symObjAddr: 0xB5A0, symBinAddr: 0x10000F224, symSize: 0xF0 }
  - { offset: 0x110C5, size: 0x8, addend: 0x0, symName: __ZNSt3__110unique_ptrINS_11__tree_nodeINS_12__value_typeINS_12basic_stringIcNS_11char_traitsIcEENS_9allocatorIcEEEEM11T_ArrayListFbvEEEPvEENS_22__tree_node_destructorINS6_ISE_EEEEEC2B8ne180100ILb1EvEEPSE_NS_16__dependent_typeINS_27__unique_ptr_deleter_sfinaeISH_EEXT_EE20__good_rval_ref_typeE, symObjAddr: 0xB690, symBinAddr: 0x10000F314, symSize: 0x258 }
  - { offset: 0x1111C, size: 0x8, addend: 0x0, symName: __ZNSt3__117__compressed_pairIPNS_11__tree_nodeINS_12__value_typeINS_12basic_stringIcNS_11char_traitsIcEENS_9allocatorIcEEEEM11T_ArrayListFbvEEEPvEENS_22__tree_node_destructorINS6_ISE_EEEEEC1B8ne180100IRSF_SI_EEOT_OT0_, symObjAddr: 0xB8E8, symBinAddr: 0x10000F56C, symSize: 0x3C }
  - { offset: 0x11174, size: 0x8, addend: 0x0, symName: __ZNSt3__117__compressed_pairIPNS_11__tree_nodeINS_12__value_typeINS_12basic_stringIcNS_11char_traitsIcEENS_9allocatorIcEEEEM11T_ArrayListFbvEEEPvEENS_22__tree_node_destructorINS6_ISE_EEEEEC2B8ne180100IRSF_SI_EEOT_OT0_, symObjAddr: 0xB924, symBinAddr: 0x10000F5A8, symSize: 0x48 }
  - { offset: 0x111CC, size: 0x8, addend: 0x0, symName: __ZNSt3__122__compressed_pair_elemIPNS_11__tree_nodeINS_12__value_typeINS_12basic_stringIcNS_11char_traitsIcEENS_9allocatorIcEEEEM11T_ArrayListFbvEEEPvEELi0ELb0EEC2B8ne180100IRSF_vEEOT_, symObjAddr: 0xB96C, symBinAddr: 0x10000F5F0, symSize: 0xB0 }
  - { offset: 0x1120E, size: 0x8, addend: 0x0, symName: __ZNSt3__122__compressed_pair_elemINS_22__tree_node_destructorINS_9allocatorINS_11__tree_nodeINS_12__value_typeINS_12basic_stringIcNS_11char_traitsIcEENS2_IcEEEEM11T_ArrayListFbvEEEPvEEEEEELi1ELb0EEC2B8ne180100ISH_vEEOT_, symObjAddr: 0xBA1C, symBinAddr: 0x10000F6A0, symSize: 0x38 }
  - { offset: 0x11250, size: 0x8, addend: 0x0, symName: __ZNSt3__19allocatorINS_11__tree_nodeINS_12__value_typeINS_12basic_stringIcNS_11char_traitsIcEENS0_IcEEEEM11T_ArrayListFbvEEEPvEEE9constructB8ne180100INS_4pairIKS7_SA_EEJRKNS_21piecewise_construct_tENS_5tupleIJRSH_EEENSM_IJEEEEEEvPT_DpOT0_, symObjAddr: 0xBA54, symBinAddr: 0x10000F6D8, symSize: 0x20C }
  - { offset: 0x112D1, size: 0x8, addend: 0x0, symName: __ZNSt3__14pairIKNS_12basic_stringIcNS_11char_traitsIcEENS_9allocatorIcEEEEM11T_ArrayListFbvEEC1B8ne180100IJRS7_EJEEENS_21piecewise_construct_tENS_5tupleIJDpT_EEENSF_IJDpT0_EEE, symObjAddr: 0xBC60, symBinAddr: 0x10000F8E4, symSize: 0x224 }
  - { offset: 0x11342, size: 0x8, addend: 0x0, symName: __ZNSt3__14pairIKNS_12basic_stringIcNS_11char_traitsIcEENS_9allocatorIcEEEEM11T_ArrayListFbvEEC1B8ne180100IJRS7_EJEJLm0EEJEEENS_21piecewise_construct_tERNS_5tupleIJDpT_EEERNSF_IJDpT0_EEENS_15__tuple_indicesIJXspT1_EEEENSO_IJXspT2_EEEE, symObjAddr: 0xBE84, symBinAddr: 0x10000FB08, symSize: 0x3C }
  - { offset: 0x113D2, size: 0x8, addend: 0x0, symName: __ZNSt3__14pairIKNS_12basic_stringIcNS_11char_traitsIcEENS_9allocatorIcEEEEM11T_ArrayListFbvEEC2B8ne180100IJRS7_EJEJLm0EEJEEENS_21piecewise_construct_tERNS_5tupleIJDpT_EEERNSF_IJDpT0_EEENS_15__tuple_indicesIJXspT1_EEEENSO_IJXspT2_EEEE, symObjAddr: 0xBEC0, symBinAddr: 0x10000FB44, symSize: 0x90 }
  - { offset: 0x11462, size: 0x8, addend: 0x0, symName: __ZNSt3__112__tuple_leafILm0ERKNS_12basic_stringIcNS_11char_traitsIcEENS_9allocatorIcEEEELb0EE3getB8ne180100Ev, symObjAddr: 0xBF74, symBinAddr: 0x10000FBF8, symSize: 0x60 }
  - { offset: 0x11488, size: 0x8, addend: 0x0, symName: __ZNKSt3__117__compressed_pairIPNS_11__tree_nodeINS_12__value_typeINS_12basic_stringIcNS_11char_traitsIcEENS_9allocatorIcEEEEM11T_ArrayListFbvEEEPvEENS_22__tree_node_destructorINS6_ISE_EEEEE5firstB8ne180100Ev, symObjAddr: 0xBFD4, symBinAddr: 0x10000FC58, symSize: 0x24 }
  - { offset: 0x114AE, size: 0x8, addend: 0x0, symName: __ZNKSt3__122__compressed_pair_elemIPNS_11__tree_nodeINS_12__value_typeINS_12basic_stringIcNS_11char_traitsIcEENS_9allocatorIcEEEEM11T_ArrayListFbvEEEPvEELi0ELb0EE5__getB8ne180100Ev, symObjAddr: 0xBFF8, symBinAddr: 0x10000FC7C, symSize: 0x14 }
  - { offset: 0x114D4, size: 0x8, addend: 0x0, symName: __ZNSt3__117__compressed_pairIPNS_11__tree_nodeINS_12__value_typeINS_12basic_stringIcNS_11char_traitsIcEENS_9allocatorIcEEEEM11T_ArrayListFbvEEEPvEENS_22__tree_node_destructorINS6_ISE_EEEEE6secondB8ne180100Ev, symObjAddr: 0xC00C, symBinAddr: 0x10000FC90, symSize: 0x28 }
  - { offset: 0x114FA, size: 0x8, addend: 0x0, symName: __ZNSt3__122__compressed_pair_elemINS_22__tree_node_destructorINS_9allocatorINS_11__tree_nodeINS_12__value_typeINS_12basic_stringIcNS_11char_traitsIcEENS2_IcEEEEM11T_ArrayListFbvEEEPvEEEEEELi1ELb0EE5__getB8ne180100Ev, symObjAddr: 0xC034, symBinAddr: 0x10000FCB8, symSize: 0x14 }
  - { offset: 0x11520, size: 0x8, addend: 0x0, symName: __ZNSt3__16__treeINS_12__value_typeINS_12basic_stringIcNS_11char_traitsIcEENS_9allocatorIcEEEEM11T_ArrayListFbvEEENS_19__map_value_compareIS7_SB_NS_4lessIS7_EELb1EEENS5_ISB_EEE12__begin_nodeB8ne180100Ev, symObjAddr: 0xC048, symBinAddr: 0x10000FCCC, symSize: 0x14 }
  - { offset: 0x11546, size: 0x8, addend: 0x0, symName: __ZNSt3__16__treeINS_12__value_typeINS_12basic_stringIcNS_11char_traitsIcEENS_9allocatorIcEEEEM11T_ArrayListFbvEEENS_19__map_value_compareIS7_SB_NS_4lessIS7_EELb1EEENS5_ISB_EEE4sizeB8ne180100Ev, symObjAddr: 0xC9BC, symBinAddr: 0x100010640, symSize: 0x28 }
  - { offset: 0x1156C, size: 0x8, addend: 0x0, symName: __ZNKSt3__116__tree_node_baseIPvE15__parent_unsafeB8ne180100Ev, symObjAddr: 0xC9E4, symBinAddr: 0x100010668, symSize: 0x64 }
  - { offset: 0x11592, size: 0x8, addend: 0x0, symName: __ZNSt3__116__tree_node_baseIPvE12__set_parentB8ne180100EPS2_, symObjAddr: 0xD1C8, symBinAddr: 0x100010E4C, symSize: 0x74 }
  - { offset: 0x115C7, size: 0x8, addend: 0x0, symName: __ZNSt3__117__compressed_pairImNS_19__map_value_compareINS_12basic_stringIcNS_11char_traitsIcEENS_9allocatorIcEEEENS_12__value_typeIS7_M11T_ArrayListFbvEEENS_4lessIS7_EELb1EEEE5firstB8ne180100Ev, symObjAddr: 0xD23C, symBinAddr: 0x100010EC0, symSize: 0x24 }
  - { offset: 0x115ED, size: 0x8, addend: 0x0, symName: __ZNSt3__122__compressed_pair_elemImLi0ELb0EE5__getB8ne180100Ev, symObjAddr: 0xD260, symBinAddr: 0x100010EE4, symSize: 0x14 }
  - { offset: 0x11613, size: 0x8, addend: 0x0, symName: __ZNSt3__117__compressed_pairIPNS_11__tree_nodeINS_12__value_typeINS_12basic_stringIcNS_11char_traitsIcEENS_9allocatorIcEEEEM11T_ArrayListFbvEEEPvEENS_22__tree_node_destructorINS6_ISE_EEEEE5firstB8ne180100Ev, symObjAddr: 0xD274, symBinAddr: 0x100010EF8, symSize: 0x24 }
  - { offset: 0x11639, size: 0x8, addend: 0x0, symName: __ZNSt3__122__compressed_pair_elemIPNS_11__tree_nodeINS_12__value_typeINS_12basic_stringIcNS_11char_traitsIcEENS_9allocatorIcEEEEM11T_ArrayListFbvEEEPvEELi0ELb0EE5__getB8ne180100Ev, symObjAddr: 0xD298, symBinAddr: 0x100010F1C, symSize: 0x14 }
  - { offset: 0x1165F, size: 0x8, addend: 0x0, symName: __ZNSt3__110unique_ptrINS_11__tree_nodeINS_12__value_typeINS_12basic_stringIcNS_11char_traitsIcEENS_9allocatorIcEEEEM11T_ArrayListFbvEEEPvEENS_22__tree_node_destructorINS6_ISE_EEEEED2B8ne180100Ev, symObjAddr: 0xD2AC, symBinAddr: 0x100010F30, symSize: 0x30 }
  - { offset: 0x11689, size: 0x8, addend: 0x0, symName: __ZNSt3__110unique_ptrINS_11__tree_nodeINS_12__value_typeINS_12basic_stringIcNS_11char_traitsIcEENS_9allocatorIcEEEEM11T_ArrayListFbvEEEPvEENS_22__tree_node_destructorINS6_ISE_EEEEE5resetB8ne180100EPSE_, symObjAddr: 0xD2DC, symBinAddr: 0x100010F60, symSize: 0xEC }
  - { offset: 0x116CD, size: 0x8, addend: 0x0, symName: __ZNSt3__122__tree_node_destructorINS_9allocatorINS_11__tree_nodeINS_12__value_typeINS_12basic_stringIcNS_11char_traitsIcEENS1_IcEEEEM11T_ArrayListFbvEEEPvEEEEEclB8ne180100EPSE_, symObjAddr: 0xD3C8, symBinAddr: 0x10001104C, symSize: 0x168 }
  - { offset: 0x11702, size: 0x8, addend: 0x0, symName: __ZNSt3__116allocator_traitsINS_9allocatorINS_11__tree_nodeINS_12__value_typeINS_12basic_stringIcNS_11char_traitsIcEENS1_IcEEEEM11T_ArrayListFbvEEEPvEEEEE7destroyB8ne180100INS_4pairIKS8_SB_EEvvEEvRSF_PT_, symObjAddr: 0xD530, symBinAddr: 0x1000111B4, symSize: 0x28 }
  - { offset: 0x1173D, size: 0x8, addend: 0x0, symName: __ZNSt3__116allocator_traitsINS_9allocatorINS_11__tree_nodeINS_12__value_typeINS_12basic_stringIcNS_11char_traitsIcEENS1_IcEEEEM11T_ArrayListFbvEEEPvEEEEE10deallocateB8ne180100ERSF_PSE_m, symObjAddr: 0xD558, symBinAddr: 0x1000111DC, symSize: 0x34 }
  - { offset: 0x1177F, size: 0x8, addend: 0x0, symName: __ZNSt3__14pairIKNS_12basic_stringIcNS_11char_traitsIcEENS_9allocatorIcEEEEM11T_ArrayListFbvEED1Ev, symObjAddr: 0xD5B0, symBinAddr: 0x100011234, symSize: 0x2C }
  - { offset: 0x117AB, size: 0x8, addend: 0x0, symName: __ZNSt3__14pairIKNS_12basic_stringIcNS_11char_traitsIcEENS_9allocatorIcEEEEM11T_ArrayListFbvEED2Ev, symObjAddr: 0xD5DC, symBinAddr: 0x100011260, symSize: 0x2C }
  - { offset: 0x117D7, size: 0x8, addend: 0x0, symName: __ZNSt3__19allocatorINS_11__tree_nodeINS_12__value_typeINS_12basic_stringIcNS_11char_traitsIcEENS0_IcEEEEM11T_ArrayListFbvEEEPvEEE10deallocateB8ne180100EPSD_m, symObjAddr: 0xD608, symBinAddr: 0x10001128C, symSize: 0x50 }
  - { offset: 0x11819, size: 0x8, addend: 0x0, symName: __ZNSt3__115__tree_iteratorINS_12__value_typeINS_12basic_stringIcNS_11char_traitsIcEENS_9allocatorIcEEEEM11T_ArrayListFbvEEEPNS_11__tree_nodeISB_PvEElEC2B8ne180100ESF_, symObjAddr: 0xD760, symBinAddr: 0x1000113E4, symSize: 0x70 }
  - { offset: 0x11852, size: 0x8, addend: 0x0, symName: __ZNSt3__14pairINS_15__tree_iteratorINS_12__value_typeINS_12basic_stringIcNS_11char_traitsIcEENS_9allocatorIcEEEEM11T_ArrayListFbvEEEPNS_11__tree_nodeISC_PvEElEEbEC2B8ne180100ISH_RbLi0EEEOT_OT0_, symObjAddr: 0xD7D0, symBinAddr: 0x100011454, symSize: 0x118 }
  - { offset: 0x118B0, size: 0x8, addend: 0x0, symName: __ZNSt3__15tupleIJRKNS_12basic_stringIcNS_11char_traitsIcEENS_9allocatorIcEEEEEEC1B8ne180100INS_4_AndELi0EEES8_, symObjAddr: 0xD8E8, symBinAddr: 0x10001156C, symSize: 0x34 }
  - { offset: 0x118F8, size: 0x8, addend: 0x0, symName: __ZNSt3__15tupleIJRKNS_12basic_stringIcNS_11char_traitsIcEENS_9allocatorIcEEEEEEC2B8ne180100INS_4_AndELi0EEES8_, symObjAddr: 0xD91C, symBinAddr: 0x1000115A0, symSize: 0x34 }
  - { offset: 0x11940, size: 0x8, addend: 0x0, symName: __ZNSt3__112__tuple_implINS_15__tuple_indicesIJLm0EEEEJRKNS_12basic_stringIcNS_11char_traitsIcEENS_9allocatorIcEEEEEEC1B8ne180100IJLm0EEJSA_EJEJEJSA_EEENS1_IJXspT_EEEENS_13__tuple_typesIJDpT0_EEENS1_IJXspT1_EEEENSE_IJDpT2_EEEDpOT3_, symObjAddr: 0xD950, symBinAddr: 0x1000115D4, symSize: 0x34 }
  - { offset: 0x119D5, size: 0x8, addend: 0x0, symName: __ZNSt3__112__tuple_implINS_15__tuple_indicesIJLm0EEEEJRKNS_12basic_stringIcNS_11char_traitsIcEENS_9allocatorIcEEEEEEC2B8ne180100IJLm0EEJSA_EJEJEJSA_EEENS1_IJXspT_EEEENS_13__tuple_typesIJDpT0_EEENS1_IJXspT1_EEEENSE_IJDpT2_EEEDpOT3_, symObjAddr: 0xD984, symBinAddr: 0x100011608, symSize: 0x34 }
  - { offset: 0x11A6A, size: 0x8, addend: 0x0, symName: __ZNSt3__112__tuple_leafILm0ERKNS_12basic_stringIcNS_11char_traitsIcEENS_9allocatorIcEEEELb0EEC2B8ne180100IS8_vEEOT_, symObjAddr: 0xD9B8, symBinAddr: 0x10001163C, symSize: 0x70 }
  - { offset: 0x11AAD, size: 0x8, addend: 0x0, symName: __ZNSt3__114pointer_traitsIPNS_12__value_typeINS_12basic_stringIcNS_11char_traitsIcEENS_9allocatorIcEEEEM11T_ArrayListFbvEEEE10pointer_toB8ne180100ERSB_, symObjAddr: 0xDA28, symBinAddr: 0x1000116AC, symSize: 0x14 }
  - { offset: 0x11AD0, size: 0x8, addend: 0x0, symName: __ZNSt3__16vectorINS_12basic_stringIcNS_11char_traitsIcEENS_9allocatorIcEEEENS4_IS6_EEEC1B8ne180100Ev, symObjAddr: 0xDA74, symBinAddr: 0x1000116F8, symSize: 0x2C }
  - { offset: 0x11AFA, size: 0x8, addend: 0x0, symName: __ZNSt3__13mapINS_12basic_stringIcNS_11char_traitsIcEENS_9allocatorIcEEEEM11T_ArrayListFbvENS_4lessIS6_EENS4_INS_4pairIKS6_S9_EEEEE5beginB8ne180100Ev, symObjAddr: 0xDAA0, symBinAddr: 0x100011724, symSize: 0x2A4 }
  - { offset: 0x11B21, size: 0x8, addend: 0x0, symName: __ZNKSt3__114__map_iteratorINS_15__tree_iteratorINS_12__value_typeINS_12basic_stringIcNS_11char_traitsIcEENS_9allocatorIcEEEEM11T_ArrayListFbvEEEPNS_11__tree_nodeISC_PvEElEEEdeB8ne180100Ev, symObjAddr: 0xDD44, symBinAddr: 0x1000119C8, symSize: 0x28 }
  - { offset: 0x11B47, size: 0x8, addend: 0x0, symName: __ZNSt3__16vectorINS_12basic_stringIcNS_11char_traitsIcEENS_9allocatorIcEEEENS4_IS6_EEE9push_backB8ne180100ERKS6_, symObjAddr: 0xDD6C, symBinAddr: 0x1000119F0, symSize: 0x140 }
  - { offset: 0x11B8D, size: 0x8, addend: 0x0, symName: __ZNSt3__114__map_iteratorINS_15__tree_iteratorINS_12__value_typeINS_12basic_stringIcNS_11char_traitsIcEENS_9allocatorIcEEEEM11T_ArrayListFbvEEEPNS_11__tree_nodeISC_PvEElEEEppB8ne180100Ev, symObjAddr: 0xDEAC, symBinAddr: 0x100011B30, symSize: 0x2C }
  - { offset: 0x11BB3, size: 0x8, addend: 0x0, symName: __ZNKSt3__16vectorINS_12basic_stringIcNS_11char_traitsIcEENS_9allocatorIcEEEENS4_IS6_EEE5emptyB8ne180100Ev, symObjAddr: 0xDED8, symBinAddr: 0x100011B5C, symSize: 0xB0 }
  - { offset: 0x11BD9, size: 0x8, addend: 0x0, symName: __ZNKSt3__13mapINS_12basic_stringIcNS_11char_traitsIcEENS_9allocatorIcEEEEM11T_ArrayListFbvENS_4lessIS6_EENS4_INS_4pairIKS6_S9_EEEEE4sizeB8ne180100Ev, symObjAddr: 0xDF88, symBinAddr: 0x100011C0C, symSize: 0x6C }
  - { offset: 0x11BFF, size: 0x8, addend: 0x0, symName: __ZNKSt3__16vectorINS_12basic_stringIcNS_11char_traitsIcEENS_9allocatorIcEEEENS4_IS6_EEE4sizeB8ne180100Ev, symObjAddr: 0xDFF4, symBinAddr: 0x100011C78, symSize: 0xB0 }
  - { offset: 0x11C25, size: 0x8, addend: 0x0, symName: __ZNSt3__16vectorINS_12basic_stringIcNS_11char_traitsIcEENS_9allocatorIcEEEENS4_IS6_EEE5beginB8ne180100Ev, symObjAddr: 0xE0A4, symBinAddr: 0x100011D28, symSize: 0x260 }
  - { offset: 0x11C4E, size: 0x8, addend: 0x0, symName: __ZNSt3__16vectorINS_12basic_stringIcNS_11char_traitsIcEENS_9allocatorIcEEEENS4_IS6_EEE3endB8ne180100Ev, symObjAddr: 0xE304, symBinAddr: 0x100011F88, symSize: 0x264 }
  - { offset: 0x11C77, size: 0x8, addend: 0x0, symName: __ZNKSt3__111__wrap_iterIPNS_12basic_stringIcNS_11char_traitsIcEENS_9allocatorIcEEEEEdeB8ne180100Ev, symObjAddr: 0xE59C, symBinAddr: 0x100012220, symSize: 0x60 }
  - { offset: 0x11C9D, size: 0x8, addend: 0x0, symName: __ZNSt3__111__wrap_iterIPNS_12basic_stringIcNS_11char_traitsIcEENS_9allocatorIcEEEEEppB8ne180100Ev, symObjAddr: 0xE5FC, symBinAddr: 0x100012280, symSize: 0x68 }
  - { offset: 0x11CC3, size: 0x8, addend: 0x0, symName: __ZNSt3__16vectorINS_12basic_stringIcNS_11char_traitsIcEENS_9allocatorIcEEEENS4_IS6_EEED1B8ne180100Ev, symObjAddr: 0xE664, symBinAddr: 0x1000122E8, symSize: 0x2C }
  - { offset: 0x11CED, size: 0x8, addend: 0x0, symName: __ZNSt3__16vectorINS_12basic_stringIcNS_11char_traitsIcEENS_9allocatorIcEEEENS4_IS6_EEEC2B8ne180100Ev, symObjAddr: 0xE690, symBinAddr: 0x100012314, symSize: 0x324 }
  - { offset: 0x11D24, size: 0x8, addend: 0x0, symName: __ZNSt3__117__compressed_pairIPNS_12basic_stringIcNS_11char_traitsIcEENS_9allocatorIcEEEENS4_IS6_EEEC1B8ne180100IDnNS_18__default_init_tagEEEOT_OT0_, symObjAddr: 0xE9B4, symBinAddr: 0x100012638, symSize: 0x3C }
  - { offset: 0x11D7C, size: 0x8, addend: 0x0, symName: __ZNSt3__117__compressed_pairIPNS_12basic_stringIcNS_11char_traitsIcEENS_9allocatorIcEEEENS4_IS6_EEEC2B8ne180100IDnNS_18__default_init_tagEEEOT_OT0_, symObjAddr: 0xE9F0, symBinAddr: 0x100012674, symSize: 0x40 }
  - { offset: 0x11DD4, size: 0x8, addend: 0x0, symName: __ZNSt3__122__compressed_pair_elemIPNS_12basic_stringIcNS_11char_traitsIcEENS_9allocatorIcEEEELi0ELb0EEC2B8ne180100IDnvEEOT_, symObjAddr: 0xEA30, symBinAddr: 0x1000126B4, symSize: 0x64 }
  - { offset: 0x11E16, size: 0x8, addend: 0x0, symName: __ZNSt3__122__compressed_pair_elemINS_9allocatorINS_12basic_stringIcNS_11char_traitsIcEENS1_IcEEEEEELi1ELb1EEC2B8ne180100ENS_18__default_init_tagE, symObjAddr: 0xEA94, symBinAddr: 0x100012718, symSize: 0x2C }
  - { offset: 0x11E4B, size: 0x8, addend: 0x0, symName: __ZNSt3__19allocatorINS_12basic_stringIcNS_11char_traitsIcEENS0_IcEEEEEC2B8ne180100Ev, symObjAddr: 0xEAC0, symBinAddr: 0x100012744, symSize: 0x2C }
  - { offset: 0x11E75, size: 0x8, addend: 0x0, symName: __ZNSt3__116__non_trivial_ifILb1ENS_9allocatorINS_12basic_stringIcNS_11char_traitsIcEENS1_IcEEEEEEEC2B8ne180100Ev, symObjAddr: 0xEAEC, symBinAddr: 0x100012770, symSize: 0x14 }
  - { offset: 0x11E9F, size: 0x8, addend: 0x0, symName: __ZNSt3__16__treeINS_12__value_typeINS_12basic_stringIcNS_11char_traitsIcEENS_9allocatorIcEEEEM11T_ArrayListFbvEEENS_19__map_value_compareIS7_SB_NS_4lessIS7_EELb1EEENS5_ISB_EEE5beginB8ne180100Ev, symObjAddr: 0xEB00, symBinAddr: 0x100012784, symSize: 0x230 }
  - { offset: 0x11EC6, size: 0x8, addend: 0x0, symName: __ZNSt3__16vectorINS_12basic_stringIcNS_11char_traitsIcEENS_9allocatorIcEEEENS4_IS6_EEE9__end_capB8ne180100Ev, symObjAddr: 0xED30, symBinAddr: 0x1000129B4, symSize: 0x28 }
  - { offset: 0x11EEC, size: 0x8, addend: 0x0, symName: __ZNSt3__16vectorINS_12basic_stringIcNS_11char_traitsIcEENS_9allocatorIcEEEENS4_IS6_EEE22__construct_one_at_endB8ne180100IJRKS6_EEEvDpOT_, symObjAddr: 0xED58, symBinAddr: 0x1000129DC, symSize: 0x390 }
  - { offset: 0x11F41, size: 0x8, addend: 0x0, symName: __ZNSt3__16vectorINS_12basic_stringIcNS_11char_traitsIcEENS_9allocatorIcEEEENS4_IS6_EEE21__push_back_slow_pathIRKS6_EEPS6_OT_, symObjAddr: 0xF0E8, symBinAddr: 0x100012D6C, symSize: 0x42C }
  - { offset: 0x11FA6, size: 0x8, addend: 0x0, symName: __ZNSt3__117__compressed_pairIPNS_12basic_stringIcNS_11char_traitsIcEENS_9allocatorIcEEEENS4_IS6_EEE5firstB8ne180100Ev, symObjAddr: 0xF514, symBinAddr: 0x100013198, symSize: 0x24 }
  - { offset: 0x11FCC, size: 0x8, addend: 0x0, symName: __ZNSt3__122__compressed_pair_elemIPNS_12basic_stringIcNS_11char_traitsIcEENS_9allocatorIcEEEELi0ELb0EE5__getB8ne180100Ev, symObjAddr: 0xF538, symBinAddr: 0x1000131BC, symSize: 0x14 }
  - { offset: 0x1200B, size: 0x8, addend: 0x0, symName: __ZNSt3__16vectorINS_12basic_stringIcNS_11char_traitsIcEENS_9allocatorIcEEEENS4_IS6_EEE21_ConstructTransactionC1B8ne180100ERS8_m, symObjAddr: 0xF54C, symBinAddr: 0x1000131D0, symSize: 0x3C }
  - { offset: 0x12053, size: 0x8, addend: 0x0, symName: __ZNSt3__116allocator_traitsINS_9allocatorINS_12basic_stringIcNS_11char_traitsIcEENS1_IcEEEEEEE9constructB8ne180100IS6_JRKS6_EvEEvRS7_PT_DpOT0_, symObjAddr: 0xF588, symBinAddr: 0x10001320C, symSize: 0x34 }
  - { offset: 0x120AA, size: 0x8, addend: 0x0, symName: __ZNSt3__16vectorINS_12basic_stringIcNS_11char_traitsIcEENS_9allocatorIcEEEENS4_IS6_EEE7__allocB8ne180100Ev, symObjAddr: 0xF5BC, symBinAddr: 0x100013240, symSize: 0x28 }
  - { offset: 0x120D0, size: 0x8, addend: 0x0, symName: __ZNSt3__16vectorINS_12basic_stringIcNS_11char_traitsIcEENS_9allocatorIcEEEENS4_IS6_EEE21_ConstructTransactionD1B8ne180100Ev, symObjAddr: 0xF5F8, symBinAddr: 0x10001327C, symSize: 0x2C }
  - { offset: 0x120FA, size: 0x8, addend: 0x0, symName: __ZNSt3__16vectorINS_12basic_stringIcNS_11char_traitsIcEENS_9allocatorIcEEEENS4_IS6_EEE21_ConstructTransactionC2B8ne180100ERS8_m, symObjAddr: 0xF624, symBinAddr: 0x1000132A8, symSize: 0x1D8 }
  - { offset: 0x12142, size: 0x8, addend: 0x0, symName: __ZNKSt3__16vectorINS_12basic_stringIcNS_11char_traitsIcEENS_9allocatorIcEEEENS4_IS6_EEE19__annotate_increaseB8ne180100Em, symObjAddr: 0xF7FC, symBinAddr: 0x100013480, symSize: 0xB0 }
  - { offset: 0x12177, size: 0x8, addend: 0x0, symName: __ZNKSt3__16vectorINS_12basic_stringIcNS_11char_traitsIcEENS_9allocatorIcEEEENS4_IS6_EEE31__annotate_contiguous_containerB8ne180100EPKvSA_, symObjAddr: 0xF8AC, symBinAddr: 0x100013530, symSize: 0x94 }
  - { offset: 0x121D9, size: 0x8, addend: 0x0, symName: __ZNKSt3__16vectorINS_12basic_stringIcNS_11char_traitsIcEENS_9allocatorIcEEEENS4_IS6_EEE4dataB8ne180100Ev, symObjAddr: 0xF940, symBinAddr: 0x1000135C4, symSize: 0x64 }
  - { offset: 0x121FF, size: 0x8, addend: 0x0, symName: __ZNKSt3__16vectorINS_12basic_stringIcNS_11char_traitsIcEENS_9allocatorIcEEEENS4_IS6_EEE8capacityB8ne180100Ev, symObjAddr: 0xF9A4, symBinAddr: 0x100013628, symSize: 0xBC }
  - { offset: 0x12225, size: 0x8, addend: 0x0, symName: __ZNKSt3__16vectorINS_12basic_stringIcNS_11char_traitsIcEENS_9allocatorIcEEEENS4_IS6_EEE9__end_capB8ne180100Ev, symObjAddr: 0xFA60, symBinAddr: 0x1000136E4, symSize: 0x28 }
  - { offset: 0x1224B, size: 0x8, addend: 0x0, symName: __ZNKSt3__117__compressed_pairIPNS_12basic_stringIcNS_11char_traitsIcEENS_9allocatorIcEEEENS4_IS6_EEE5firstB8ne180100Ev, symObjAddr: 0xFA88, symBinAddr: 0x10001370C, symSize: 0x24 }
  - { offset: 0x12271, size: 0x8, addend: 0x0, symName: __ZNKSt3__122__compressed_pair_elemIPNS_12basic_stringIcNS_11char_traitsIcEENS_9allocatorIcEEEELi0ELb0EE5__getB8ne180100Ev, symObjAddr: 0xFAAC, symBinAddr: 0x100013730, symSize: 0x14 }
  - { offset: 0x12297, size: 0x8, addend: 0x0, symName: __ZNSt3__19allocatorINS_12basic_stringIcNS_11char_traitsIcEENS0_IcEEEEE9constructB8ne180100IS5_JRKS5_EEEvPT_DpOT0_, symObjAddr: 0xFAC0, symBinAddr: 0x100013744, symSize: 0x30 }
  - { offset: 0x122ED, size: 0x8, addend: 0x0, symName: __ZNSt3__117__compressed_pairIPNS_12basic_stringIcNS_11char_traitsIcEENS_9allocatorIcEEEENS4_IS6_EEE6secondB8ne180100Ev, symObjAddr: 0xFAF0, symBinAddr: 0x100013774, symSize: 0x24 }
  - { offset: 0x12313, size: 0x8, addend: 0x0, symName: __ZNSt3__122__compressed_pair_elemINS_9allocatorINS_12basic_stringIcNS_11char_traitsIcEENS1_IcEEEEEELi1ELb1EE5__getB8ne180100Ev, symObjAddr: 0xFB14, symBinAddr: 0x100013798, symSize: 0x14 }
  - { offset: 0x12339, size: 0x8, addend: 0x0, symName: __ZNSt3__16vectorINS_12basic_stringIcNS_11char_traitsIcEENS_9allocatorIcEEEENS4_IS6_EEE21_ConstructTransactionD2B8ne180100Ev, symObjAddr: 0xFB28, symBinAddr: 0x1000137AC, symSize: 0x278 }
  - { offset: 0x12363, size: 0x8, addend: 0x0, symName: __ZNKSt3__16vectorINS_12basic_stringIcNS_11char_traitsIcEENS_9allocatorIcEEEENS4_IS6_EEE17__annotate_shrinkB8ne180100Em, symObjAddr: 0xFDA0, symBinAddr: 0x100013A24, symSize: 0x9C }
  - { offset: 0x12398, size: 0x8, addend: 0x0, symName: __ZNKSt3__16vectorINS_12basic_stringIcNS_11char_traitsIcEENS_9allocatorIcEEEENS4_IS6_EEE11__recommendB8ne180100Em, symObjAddr: 0xFE3C, symBinAddr: 0x100013AC0, symSize: 0x374 }
  - { offset: 0x123F4, size: 0x8, addend: 0x0, symName: __ZNSt3__114__split_bufferINS_12basic_stringIcNS_11char_traitsIcEENS_9allocatorIcEEEERNS4_IS6_EEEC1EmmS8_, symObjAddr: 0x101B0, symBinAddr: 0x100013E34, symSize: 0x44 }
  - { offset: 0x1244A, size: 0x8, addend: 0x0, symName: __ZNSt3__114__split_bufferINS_12basic_stringIcNS_11char_traitsIcEENS_9allocatorIcEEEERNS4_IS6_EEED1Ev, symObjAddr: 0x10758, symBinAddr: 0x1000143DC, symSize: 0x2C }
  - { offset: 0x12476, size: 0x8, addend: 0x0, symName: __ZNKSt3__16vectorINS_12basic_stringIcNS_11char_traitsIcEENS_9allocatorIcEEEENS4_IS6_EEE8max_sizeEv, symObjAddr: 0x10784, symBinAddr: 0x100014408, symSize: 0x338 }
  - { offset: 0x1249F, size: 0x8, addend: 0x0, symName: __ZNKSt3__16vectorINS_12basic_stringIcNS_11char_traitsIcEENS_9allocatorIcEEEENS4_IS6_EEE20__throw_length_errorB8ne180100Ev, symObjAddr: 0x10ABC, symBinAddr: 0x100014740, symSize: 0x20 }
  - { offset: 0x124CF, size: 0x8, addend: 0x0, symName: __ZNSt3__116allocator_traitsINS_9allocatorINS_12basic_stringIcNS_11char_traitsIcEENS1_IcEEEEEEE8max_sizeB8ne180100IS7_vEEmRKS7_, symObjAddr: 0x10B08, symBinAddr: 0x10001478C, symSize: 0x24 }
  - { offset: 0x124FD, size: 0x8, addend: 0x0, symName: __ZNKSt3__16vectorINS_12basic_stringIcNS_11char_traitsIcEENS_9allocatorIcEEEENS4_IS6_EEE7__allocB8ne180100Ev, symObjAddr: 0x10B2C, symBinAddr: 0x1000147B0, symSize: 0x28 }
  - { offset: 0x12523, size: 0x8, addend: 0x0, symName: __ZNSt3__114numeric_limitsIlE3maxB8ne180100Ev, symObjAddr: 0x10B54, symBinAddr: 0x1000147D8, symSize: 0x14 }
  - { offset: 0x12537, size: 0x8, addend: 0x0, symName: __ZNKSt3__19allocatorINS_12basic_stringIcNS_11char_traitsIcEENS0_IcEEEEE8max_sizeB8ne180100Ev, symObjAddr: 0x10B68, symBinAddr: 0x1000147EC, symSize: 0x18 }
  - { offset: 0x1255D, size: 0x8, addend: 0x0, symName: __ZNKSt3__117__compressed_pairIPNS_12basic_stringIcNS_11char_traitsIcEENS_9allocatorIcEEEENS4_IS6_EEE6secondB8ne180100Ev, symObjAddr: 0x10B80, symBinAddr: 0x100014804, symSize: 0x24 }
  - { offset: 0x12583, size: 0x8, addend: 0x0, symName: __ZNKSt3__122__compressed_pair_elemINS_9allocatorINS_12basic_stringIcNS_11char_traitsIcEENS1_IcEEEEEELi1ELb1EE5__getB8ne180100Ev, symObjAddr: 0x10BA4, symBinAddr: 0x100014828, symSize: 0x14 }
  - { offset: 0x125A9, size: 0x8, addend: 0x0, symName: __ZNSt3__123__libcpp_numeric_limitsIlLb1EE3maxB8ne180100Ev, symObjAddr: 0x10BB8, symBinAddr: 0x10001483C, symSize: 0x8 }
  - { offset: 0x125BD, size: 0x8, addend: 0x0, symName: __ZNSt12length_errorC1B8ne180100EPKc, symObjAddr: 0x10C28, symBinAddr: 0x1000148AC, symSize: 0x34 }
  - { offset: 0x125F5, size: 0x8, addend: 0x0, symName: __ZNSt12length_errorC2B8ne180100EPKc, symObjAddr: 0x10C5C, symBinAddr: 0x1000148E0, symSize: 0x84 }
  - { offset: 0x1262D, size: 0x8, addend: 0x0, symName: __ZNSt3__114__split_bufferINS_12basic_stringIcNS_11char_traitsIcEENS_9allocatorIcEEEERNS4_IS6_EEEC2EmmS8_, symObjAddr: 0x10EC0, symBinAddr: 0x100014B44, symSize: 0x520 }
  - { offset: 0x126A8, size: 0x8, addend: 0x0, symName: __ZNSt3__117__compressed_pairIPNS_12basic_stringIcNS_11char_traitsIcEENS_9allocatorIcEEEERNS4_IS6_EEEC1B8ne180100IDnS9_EEOT_OT0_, symObjAddr: 0x113E0, symBinAddr: 0x100015064, symSize: 0x3C }
  - { offset: 0x12700, size: 0x8, addend: 0x0, symName: __ZNSt3__114__split_bufferINS_12basic_stringIcNS_11char_traitsIcEENS_9allocatorIcEEEERNS4_IS6_EEE7__allocB8ne180100Ev, symObjAddr: 0x116A0, symBinAddr: 0x100015324, symSize: 0x28 }
  - { offset: 0x12726, size: 0x8, addend: 0x0, symName: __ZNSt3__114__split_bufferINS_12basic_stringIcNS_11char_traitsIcEENS_9allocatorIcEEEERNS4_IS6_EEE9__end_capB8ne180100Ev, symObjAddr: 0x116C8, symBinAddr: 0x10001534C, symSize: 0x28 }
  - { offset: 0x1274C, size: 0x8, addend: 0x0, symName: __ZNSt3__117__compressed_pairIPNS_12basic_stringIcNS_11char_traitsIcEENS_9allocatorIcEEEERNS4_IS6_EEEC2B8ne180100IDnS9_EEOT_OT0_, symObjAddr: 0x116F0, symBinAddr: 0x100015374, symSize: 0x48 }
  - { offset: 0x127A4, size: 0x8, addend: 0x0, symName: __ZNSt3__122__compressed_pair_elemIRNS_9allocatorINS_12basic_stringIcNS_11char_traitsIcEENS1_IcEEEEEELi1ELb0EEC2B8ne180100IS8_vEEOT_, symObjAddr: 0x11738, symBinAddr: 0x1000153BC, symSize: 0x70 }
  - { offset: 0x127E6, size: 0x8, addend: 0x0, symName: __ZNSt3__19allocatorINS_12basic_stringIcNS_11char_traitsIcEENS0_IcEEEEE8allocateB8ne180100Em, symObjAddr: 0x117A8, symBinAddr: 0x10001542C, symSize: 0x60 }
  - { offset: 0x1281A, size: 0x8, addend: 0x0, symName: __ZNSt3__117__compressed_pairIPNS_12basic_stringIcNS_11char_traitsIcEENS_9allocatorIcEEEERNS4_IS6_EEE6secondB8ne180100Ev, symObjAddr: 0x11808, symBinAddr: 0x10001548C, symSize: 0x28 }
  - { offset: 0x12840, size: 0x8, addend: 0x0, symName: __ZNSt3__122__compressed_pair_elemIRNS_9allocatorINS_12basic_stringIcNS_11char_traitsIcEENS1_IcEEEEEELi1ELb0EE5__getB8ne180100Ev, symObjAddr: 0x11830, symBinAddr: 0x1000154B4, symSize: 0x60 }
  - { offset: 0x12866, size: 0x8, addend: 0x0, symName: __ZNSt3__117__compressed_pairIPNS_12basic_stringIcNS_11char_traitsIcEENS_9allocatorIcEEEERNS4_IS6_EEE5firstB8ne180100Ev, symObjAddr: 0x11890, symBinAddr: 0x100015514, symSize: 0x24 }
  - { offset: 0x1288C, size: 0x8, addend: 0x0, symName: __ZNKSt3__16vectorINS_12basic_stringIcNS_11char_traitsIcEENS_9allocatorIcEEEENS4_IS6_EEE17__annotate_deleteB8ne180100Ev, symObjAddr: 0x118B4, symBinAddr: 0x100015538, symSize: 0xA0 }
  - { offset: 0x128B2, size: 0x8, addend: 0x0, symName: __ZNSt3__116reverse_iteratorIPNS_12basic_stringIcNS_11char_traitsIcEENS_9allocatorIcEEEEEC1B8ne180100ES7_, symObjAddr: 0x11EE0, symBinAddr: 0x100015B64, symSize: 0x34 }
  - { offset: 0x128EA, size: 0x8, addend: 0x0, symName: __ZNKSt3__116reverse_iteratorIPNS_12basic_stringIcNS_11char_traitsIcEENS_9allocatorIcEEEEE4baseB8ne180100Ev, symObjAddr: 0x11F14, symBinAddr: 0x100015B98, symSize: 0x64 }
  - { offset: 0x12910, size: 0x8, addend: 0x0, symName: __ZNKSt3__16vectorINS_12basic_stringIcNS_11char_traitsIcEENS_9allocatorIcEEEENS4_IS6_EEE14__annotate_newB8ne180100Em, symObjAddr: 0x120AC, symBinAddr: 0x100015D30, symSize: 0x94 }
  - { offset: 0x12945, size: 0x8, addend: 0x0, symName: __ZNSt3__129_AllocatorDestroyRangeReverseINS_9allocatorINS_12basic_stringIcNS_11char_traitsIcEENS1_IcEEEEEENS_16reverse_iteratorIPS6_EEEC1B8ne180100ERS7_RSA_SD_, symObjAddr: 0x12328, symBinAddr: 0x100015FAC, symSize: 0x44 }
  - { offset: 0x129A2, size: 0x8, addend: 0x0, symName: __ZNSt3__116allocator_traitsINS_9allocatorINS_12basic_stringIcNS_11char_traitsIcEENS1_IcEEEEEEE9constructB8ne180100IS6_JS6_EvEEvRS7_PT_DpOT0_, symObjAddr: 0x123B4, symBinAddr: 0x100016038, symSize: 0x34 }
  - { offset: 0x129F9, size: 0x8, addend: 0x0, symName: __ZNKSt3__116reverse_iteratorIPNS_12basic_stringIcNS_11char_traitsIcEENS_9allocatorIcEEEEEdeB8ne180100Ev, symObjAddr: 0x1240C, symBinAddr: 0x100016090, symSize: 0x74 }
  - { offset: 0x12A2D, size: 0x8, addend: 0x0, symName: __ZNSt3__116reverse_iteratorIPNS_12basic_stringIcNS_11char_traitsIcEENS_9allocatorIcEEEEEppB8ne180100Ev, symObjAddr: 0x12480, symBinAddr: 0x100016104, symSize: 0x6C }
  - { offset: 0x12A53, size: 0x8, addend: 0x0, symName: __ZNSt3__128__exception_guard_exceptionsINS_29_AllocatorDestroyRangeReverseINS_9allocatorINS_12basic_stringIcNS_11char_traitsIcEENS2_IcEEEEEENS_16reverse_iteratorIPS7_EEEEE10__completeB8ne180100Ev, symObjAddr: 0x124EC, symBinAddr: 0x100016170, symSize: 0x8C }
  - { offset: 0x12A79, size: 0x8, addend: 0x0, symName: __ZNSt3__128__exception_guard_exceptionsINS_29_AllocatorDestroyRangeReverseINS_9allocatorINS_12basic_stringIcNS_11char_traitsIcEENS2_IcEEEEEENS_16reverse_iteratorIPS7_EEEEED1B8ne180100Ev, symObjAddr: 0x12578, symBinAddr: 0x1000161FC, symSize: 0x2C }
  - { offset: 0x12AA3, size: 0x8, addend: 0x0, symName: __ZNSt3__128__exception_guard_exceptionsINS_29_AllocatorDestroyRangeReverseINS_9allocatorINS_12basic_stringIcNS_11char_traitsIcEENS2_IcEEEEEENS_16reverse_iteratorIPS7_EEEEEC1B8ne180100ESC_, symObjAddr: 0x125A4, symBinAddr: 0x100016228, symSize: 0x34 }
  - { offset: 0x12ADC, size: 0x8, addend: 0x0, symName: __ZNSt3__128__exception_guard_exceptionsINS_29_AllocatorDestroyRangeReverseINS_9allocatorINS_12basic_stringIcNS_11char_traitsIcEENS2_IcEEEEEENS_16reverse_iteratorIPS7_EEEEEC2B8ne180100ESC_, symObjAddr: 0x125D8, symBinAddr: 0x10001625C, symSize: 0xA4 }
  - { offset: 0x12B15, size: 0x8, addend: 0x0, symName: __ZNSt3__129_AllocatorDestroyRangeReverseINS_9allocatorINS_12basic_stringIcNS_11char_traitsIcEENS1_IcEEEEEENS_16reverse_iteratorIPS6_EEEC2B8ne180100ERS7_RSA_SD_, symObjAddr: 0x1267C, symBinAddr: 0x100016300, symSize: 0x104 }
  - { offset: 0x12B6C, size: 0x8, addend: 0x0, symName: __ZNSt3__19allocatorINS_12basic_stringIcNS_11char_traitsIcEENS0_IcEEEEE9constructB8ne180100IS5_JS5_EEEvPT_DpOT0_, symObjAddr: 0x12780, symBinAddr: 0x100016404, symSize: 0x30 }
  - { offset: 0x12BC7, size: 0x8, addend: 0x0, symName: __ZNSt3__119__to_address_helperINS_16reverse_iteratorIPNS_12basic_stringIcNS_11char_traitsIcEENS_9allocatorIcEEEEEEvE6__callB8ne180100ERKS9_, symObjAddr: 0x127B0, symBinAddr: 0x100016434, symSize: 0x44 }
  - { offset: 0x12BEA, size: 0x8, addend: 0x0, symName: __ZNKSt3__116reverse_iteratorIPNS_12basic_stringIcNS_11char_traitsIcEENS_9allocatorIcEEEEEptB8ne180100Ev, symObjAddr: 0x127F4, symBinAddr: 0x100016478, symSize: 0x24 }
  - { offset: 0x12C10, size: 0x8, addend: 0x0, symName: __ZNSt3__128__exception_guard_exceptionsINS_29_AllocatorDestroyRangeReverseINS_9allocatorINS_12basic_stringIcNS_11char_traitsIcEENS2_IcEEEEEENS_16reverse_iteratorIPS7_EEEEED2B8ne180100Ev, symObjAddr: 0x12818, symBinAddr: 0x10001649C, symSize: 0xBC }
  - { offset: 0x12C3A, size: 0x8, addend: 0x0, symName: __ZNKSt3__129_AllocatorDestroyRangeReverseINS_9allocatorINS_12basic_stringIcNS_11char_traitsIcEENS1_IcEEEEEENS_16reverse_iteratorIPS6_EEEclB8ne180100Ev, symObjAddr: 0x128D4, symBinAddr: 0x100016558, symSize: 0x3A0 }
  - { offset: 0x12C61, size: 0x8, addend: 0x0, symName: __ZNSt3__116reverse_iteratorINS0_IPNS_12basic_stringIcNS_11char_traitsIcEENS_9allocatorIcEEEEEEEC1B8ne180100ES8_, symObjAddr: 0x12CE4, symBinAddr: 0x100016968, symSize: 0x240 }
  - { offset: 0x12C9E, size: 0x8, addend: 0x0, symName: __ZNSt3__116allocator_traitsINS_9allocatorINS_12basic_stringIcNS_11char_traitsIcEENS1_IcEEEEEEE7destroyB8ne180100IS6_vEEvRS7_PT_, symObjAddr: 0x131E0, symBinAddr: 0x100016E64, symSize: 0x2C }
  - { offset: 0x12CDB, size: 0x8, addend: 0x0, symName: __ZNSt3__116reverse_iteratorINS0_IPNS_12basic_stringIcNS_11char_traitsIcEENS_9allocatorIcEEEEEEEppB8ne180100Ev, symObjAddr: 0x13230, symBinAddr: 0x100016EB4, symSize: 0x30 }
  - { offset: 0x12D01, size: 0x8, addend: 0x0, symName: __ZNKSt3__116reverse_iteratorINS0_IPNS_12basic_stringIcNS_11char_traitsIcEENS_9allocatorIcEEEEEEE4baseB8ne180100Ev, symObjAddr: 0x13260, symBinAddr: 0x100016EE4, symSize: 0x204 }
  - { offset: 0x12D28, size: 0x8, addend: 0x0, symName: __ZNSt3__19allocatorINS_12basic_stringIcNS_11char_traitsIcEENS0_IcEEEEE7destroyB8ne180100EPS5_, symObjAddr: 0x13464, symBinAddr: 0x1000170E8, symSize: 0x28 }
  - { offset: 0x12D61, size: 0x8, addend: 0x0, symName: __ZNSt3__119__to_address_helperINS_16reverse_iteratorINS1_IPNS_12basic_stringIcNS_11char_traitsIcEENS_9allocatorIcEEEEEEEEvE6__callB8ne180100ERKSA_, symObjAddr: 0x1348C, symBinAddr: 0x100017110, symSize: 0x44 }
  - { offset: 0x12D84, size: 0x8, addend: 0x0, symName: __ZNKSt3__116reverse_iteratorINS0_IPNS_12basic_stringIcNS_11char_traitsIcEENS_9allocatorIcEEEEEEEptB8ne180100Ev, symObjAddr: 0x134D0, symBinAddr: 0x100017154, symSize: 0x24 }
  - { offset: 0x12DAA, size: 0x8, addend: 0x0, symName: __ZNKSt3__116reverse_iteratorINS0_IPNS_12basic_stringIcNS_11char_traitsIcEENS_9allocatorIcEEEEEEEdeB8ne180100Ev, symObjAddr: 0x134F4, symBinAddr: 0x100017178, symSize: 0x1E4 }
  - { offset: 0x12DE3, size: 0x8, addend: 0x0, symName: __ZNSt3__116reverse_iteratorIPNS_12basic_stringIcNS_11char_traitsIcEENS_9allocatorIcEEEEEmmB8ne180100Ev, symObjAddr: 0x136D8, symBinAddr: 0x10001735C, symSize: 0x6C }
  - { offset: 0x12E09, size: 0x8, addend: 0x0, symName: __ZNSt3__116reverse_iteratorINS0_IPNS_12basic_stringIcNS_11char_traitsIcEENS_9allocatorIcEEEEEEEC2B8ne180100ES8_, symObjAddr: 0x13744, symBinAddr: 0x1000173C8, symSize: 0x224 }
  - { offset: 0x12E46, size: 0x8, addend: 0x0, symName: __ZNSt3__116reverse_iteratorIPNS_12basic_stringIcNS_11char_traitsIcEENS_9allocatorIcEEEEEC2B8ne180100ES7_, symObjAddr: 0x13968, symBinAddr: 0x1000175EC, symSize: 0xB8 }
  - { offset: 0x12E7E, size: 0x8, addend: 0x0, symName: __ZNSt3__114__split_bufferINS_12basic_stringIcNS_11char_traitsIcEENS_9allocatorIcEEEERNS4_IS6_EEED2Ev, symObjAddr: 0x13A20, symBinAddr: 0x1000176A4, symSize: 0x104 }
  - { offset: 0x12EAA, size: 0x8, addend: 0x0, symName: __ZNSt3__114__split_bufferINS_12basic_stringIcNS_11char_traitsIcEENS_9allocatorIcEEEERNS4_IS6_EEE5clearB8ne180100Ev, symObjAddr: 0x13B24, symBinAddr: 0x1000177A8, symSize: 0x68 }
  - { offset: 0x12ED0, size: 0x8, addend: 0x0, symName: __ZNSt3__116allocator_traitsINS_9allocatorINS_12basic_stringIcNS_11char_traitsIcEENS1_IcEEEEEEE10deallocateB8ne180100ERS7_PS6_m, symObjAddr: 0x13B8C, symBinAddr: 0x100017810, symSize: 0x34 }
  - { offset: 0x12F12, size: 0x8, addend: 0x0, symName: __ZNKSt3__114__split_bufferINS_12basic_stringIcNS_11char_traitsIcEENS_9allocatorIcEEEERNS4_IS6_EEE8capacityB8ne180100Ev, symObjAddr: 0x13BC0, symBinAddr: 0x100017844, symSize: 0xBC }
  - { offset: 0x12F38, size: 0x8, addend: 0x0, symName: __ZNSt3__114__split_bufferINS_12basic_stringIcNS_11char_traitsIcEENS_9allocatorIcEEEERNS4_IS6_EEE17__destruct_at_endB8ne180100EPS6_, symObjAddr: 0x13C7C, symBinAddr: 0x100017900, symSize: 0x2C }
  - { offset: 0x12F6C, size: 0x8, addend: 0x0, symName: __ZNSt3__114__split_bufferINS_12basic_stringIcNS_11char_traitsIcEENS_9allocatorIcEEEERNS4_IS6_EEE17__destruct_at_endB8ne180100EPS6_NS_17integral_constantIbLb0EEE, symObjAddr: 0x13CA8, symBinAddr: 0x10001792C, symSize: 0x10C }
  - { offset: 0x12FAD, size: 0x8, addend: 0x0, symName: __ZNSt3__19allocatorINS_12basic_stringIcNS_11char_traitsIcEENS0_IcEEEEE10deallocateB8ne180100EPS5_m, symObjAddr: 0x13DB4, symBinAddr: 0x100017A38, symSize: 0x50 }
  - { offset: 0x12FEF, size: 0x8, addend: 0x0, symName: __ZNKSt3__114__split_bufferINS_12basic_stringIcNS_11char_traitsIcEENS_9allocatorIcEEEERNS4_IS6_EEE9__end_capB8ne180100Ev, symObjAddr: 0x13E04, symBinAddr: 0x100017A88, symSize: 0x28 }
  - { offset: 0x13015, size: 0x8, addend: 0x0, symName: __ZNKSt3__117__compressed_pairIPNS_12basic_stringIcNS_11char_traitsIcEENS_9allocatorIcEEEERNS4_IS6_EEE5firstB8ne180100Ev, symObjAddr: 0x13E2C, symBinAddr: 0x100017AB0, symSize: 0x24 }
  - { offset: 0x1303B, size: 0x8, addend: 0x0, symName: __ZNSt3__115__tree_iteratorINS_12__value_typeINS_12basic_stringIcNS_11char_traitsIcEENS_9allocatorIcEEEEM11T_ArrayListFbvEEEPNS_11__tree_nodeISB_PvEElEppB8ne180100Ev, symObjAddr: 0x13E50, symBinAddr: 0x100017AD4, symSize: 0xA8 }
  - { offset: 0x13061, size: 0x8, addend: 0x0, symName: __ZNKSt3__16__treeINS_12__value_typeINS_12basic_stringIcNS_11char_traitsIcEENS_9allocatorIcEEEEM11T_ArrayListFbvEEENS_19__map_value_compareIS7_SB_NS_4lessIS7_EELb1EEENS5_ISB_EEE4sizeB8ne180100Ev, symObjAddr: 0x140F0, symBinAddr: 0x100017D74, symSize: 0x28 }
  - { offset: 0x13087, size: 0x8, addend: 0x0, symName: __ZNKSt3__117__compressed_pairImNS_19__map_value_compareINS_12basic_stringIcNS_11char_traitsIcEENS_9allocatorIcEEEENS_12__value_typeIS7_M11T_ArrayListFbvEEENS_4lessIS7_EELb1EEEE5firstB8ne180100Ev, symObjAddr: 0x14118, symBinAddr: 0x100017D9C, symSize: 0x24 }
  - { offset: 0x130AD, size: 0x8, addend: 0x0, symName: __ZNKSt3__122__compressed_pair_elemImLi0ELb0EE5__getB8ne180100Ev, symObjAddr: 0x1413C, symBinAddr: 0x100017DC0, symSize: 0x14 }
  - { offset: 0x130D3, size: 0x8, addend: 0x0, symName: __ZNSt3__16vectorINS_12basic_stringIcNS_11char_traitsIcEENS_9allocatorIcEEEENS4_IS6_EEE11__make_iterB8ne180100EPS6_, symObjAddr: 0x14150, symBinAddr: 0x100017DD4, symSize: 0x1F4 }
  - { offset: 0x1310A, size: 0x8, addend: 0x0, symName: __ZNSt3__111__wrap_iterIPNS_12basic_stringIcNS_11char_traitsIcEENS_9allocatorIcEEEEEC1B8ne180100ES7_, symObjAddr: 0x14344, symBinAddr: 0x100017FC8, symSize: 0x34 }
  - { offset: 0x13142, size: 0x8, addend: 0x0, symName: __ZNSt3__111__wrap_iterIPNS_12basic_stringIcNS_11char_traitsIcEENS_9allocatorIcEEEEEC2B8ne180100ES7_, symObjAddr: 0x14378, symBinAddr: 0x100017FFC, symSize: 0x70 }
  - { offset: 0x1317A, size: 0x8, addend: 0x0, symName: __ZNKSt3__111__wrap_iterIPNS_12basic_stringIcNS_11char_traitsIcEENS_9allocatorIcEEEEE4baseB8ne180100Ev, symObjAddr: 0x14430, symBinAddr: 0x1000180B4, symSize: 0x60 }
  - { offset: 0x131A0, size: 0x8, addend: 0x0, symName: __ZNSt3__16vectorINS_12basic_stringIcNS_11char_traitsIcEENS_9allocatorIcEEEENS4_IS6_EEED2B8ne180100Ev, symObjAddr: 0x14490, symBinAddr: 0x100018114, symSize: 0x230 }
  - { offset: 0x131CB, size: 0x8, addend: 0x0, symName: __ZNSt3__16vectorINS_12basic_stringIcNS_11char_traitsIcEENS_9allocatorIcEEEENS4_IS6_EEE16__destroy_vectorC1B8ne180100ERS8_, symObjAddr: 0x146C0, symBinAddr: 0x100018344, symSize: 0x34 }
  - { offset: 0x13204, size: 0x8, addend: 0x0, symName: __ZNSt3__16vectorINS_12basic_stringIcNS_11char_traitsIcEENS_9allocatorIcEEEENS4_IS6_EEE16__destroy_vectorclB8ne180100Ev, symObjAddr: 0x146F4, symBinAddr: 0x100018378, symSize: 0x228 }
  - { offset: 0x1322A, size: 0x8, addend: 0x0, symName: __ZNSt3__16vectorINS_12basic_stringIcNS_11char_traitsIcEENS_9allocatorIcEEEENS4_IS6_EEE16__destroy_vectorC2B8ne180100ERS8_, symObjAddr: 0x1491C, symBinAddr: 0x1000185A0, symSize: 0x70 }
  - { offset: 0x13263, size: 0x8, addend: 0x0, symName: __ZNSt3__16vectorINS_12basic_stringIcNS_11char_traitsIcEENS_9allocatorIcEEEENS4_IS6_EEE7__clearB8ne180100Ev, symObjAddr: 0x1498C, symBinAddr: 0x100018610, symSize: 0x64 }
  - { offset: 0x13289, size: 0x8, addend: 0x0, symName: __ZNSt3__16vectorINS_12basic_stringIcNS_11char_traitsIcEENS_9allocatorIcEEEENS4_IS6_EEE22__base_destruct_at_endB8ne180100EPS6_, symObjAddr: 0x149F0, symBinAddr: 0x100018674, symSize: 0x114 }
  - { offset: 0x132CD, size: 0x8, addend: 0x0, symName: __ZNKSt3__114__map_iteratorINS_15__tree_iteratorINS_12__value_typeINS_12basic_stringIcNS_11char_traitsIcEENS_9allocatorIcEEEEM11T_ArrayListFbvEEEPNS_11__tree_nodeISC_PvEElEEEptB8ne180100Ev, symObjAddr: 0x14B04, symBinAddr: 0x100018788, symSize: 0x2C }
  - { offset: 0x132F3, size: 0x8, addend: 0x0, symName: __ZNSt3__114pointer_traitsIPNS_4pairIKNS_12basic_stringIcNS_11char_traitsIcEENS_9allocatorIcEEEEM11T_ArrayListFbvEEEE10pointer_toB8ne180100ERSC_, symObjAddr: 0x14B30, symBinAddr: 0x1000187B4, symSize: 0x14 }
  - { offset: 0x13316, size: 0x8, addend: 0x0, symName: __ZN11T_ArrayListD2Ev, symObjAddr: 0x14B44, symBinAddr: 0x1000187C8, symSize: 0x50 }
  - { offset: 0x13342, size: 0x8, addend: 0x0, symName: __ZN12T_LinkedListC2Ev, symObjAddr: 0x14B94, symBinAddr: 0x100018818, symSize: 0x2088 }
  - { offset: 0x1336D, size: 0x8, addend: 0x0, symName: __ZN12T_LinkedList12registerTestENSt3__112basic_stringIcNS0_11char_traitsIcEENS0_9allocatorIcEEEEMS_FbvE, symObjAddr: 0x16C1C, symBinAddr: 0x10001A8A0, symSize: 0x60C }
  - { offset: 0x133A1, size: 0x8, addend: 0x0, symName: __ZNSt3__13mapINS_12basic_stringIcNS_11char_traitsIcEENS_9allocatorIcEEEEM12T_LinkedListFbvENS_4lessIS6_EENS4_INS_4pairIKS6_S9_EEEEE4findB8ne180100ERSD_, symObjAddr: 0x17258, symBinAddr: 0x10001AEDC, symSize: 0x2AC }
  - { offset: 0x133D8, size: 0x8, addend: 0x0, symName: __ZNSt3__13mapINS_12basic_stringIcNS_11char_traitsIcEENS_9allocatorIcEEEEM12T_LinkedListFbvENS_4lessIS6_EENS4_INS_4pairIKS6_S9_EEEEE3endB8ne180100Ev, symObjAddr: 0x17504, symBinAddr: 0x10001B188, symSize: 0x2A4 }
  - { offset: 0x133FF, size: 0x8, addend: 0x0, symName: __ZNSt3__13mapINS_12basic_stringIcNS_11char_traitsIcEENS_9allocatorIcEEEEM12T_LinkedListFbvENS_4lessIS6_EENS4_INS_4pairIKS6_S9_EEEEEixERSD_, symObjAddr: 0x177A8, symBinAddr: 0x10001B42C, symSize: 0x304 }
  - { offset: 0x13438, size: 0x8, addend: 0x0, symName: __ZNSt3__16__treeINS_12__value_typeINS_12basic_stringIcNS_11char_traitsIcEENS_9allocatorIcEEEEM12T_LinkedListFbvEEENS_19__map_value_compareIS7_SB_NS_4lessIS7_EELb1EEENS5_ISB_EEE4findIS7_EENS_15__tree_iteratorISB_PNS_11__tree_nodeISB_PvEElEERKT_, symObjAddr: 0x17B98, symBinAddr: 0x10001B81C, symSize: 0x3EC }
  - { offset: 0x1348D, size: 0x8, addend: 0x0, symName: __ZNSt3__114__map_iteratorINS_15__tree_iteratorINS_12__value_typeINS_12basic_stringIcNS_11char_traitsIcEENS_9allocatorIcEEEEM12T_LinkedListFbvEEEPNS_11__tree_nodeISC_PvEElEEEC1B8ne180100ESH_, symObjAddr: 0x17F84, symBinAddr: 0x10001BC08, symSize: 0x230 }
  - { offset: 0x134CB, size: 0x8, addend: 0x0, symName: __ZNSt3__16__treeINS_12__value_typeINS_12basic_stringIcNS_11char_traitsIcEENS_9allocatorIcEEEEM12T_LinkedListFbvEEENS_19__map_value_compareIS7_SB_NS_4lessIS7_EELb1EEENS5_ISB_EEE13__lower_boundIS7_EENS_15__tree_iteratorISB_PNS_11__tree_nodeISB_PvEElEERKT_SN_PNS_15__tree_end_nodeIPNS_16__tree_node_baseISL_EEEE, symObjAddr: 0x181B4, symBinAddr: 0x10001BE38, symSize: 0x2D8 }
  - { offset: 0x1352D, size: 0x8, addend: 0x0, symName: __ZNKSt3__16__treeINS_12__value_typeINS_12basic_stringIcNS_11char_traitsIcEENS_9allocatorIcEEEEM12T_LinkedListFbvEEENS_19__map_value_compareIS7_SB_NS_4lessIS7_EELb1EEENS5_ISB_EEE6__rootB8ne180100Ev, symObjAddr: 0x1848C, symBinAddr: 0x10001C110, symSize: 0x6C }
  - { offset: 0x13553, size: 0x8, addend: 0x0, symName: __ZNSt3__16__treeINS_12__value_typeINS_12basic_stringIcNS_11char_traitsIcEENS_9allocatorIcEEEEM12T_LinkedListFbvEEENS_19__map_value_compareIS7_SB_NS_4lessIS7_EELb1EEENS5_ISB_EEE10__end_nodeB8ne180100Ev, symObjAddr: 0x184F8, symBinAddr: 0x10001C17C, symSize: 0x2C }
  - { offset: 0x13579, size: 0x8, addend: 0x0, symName: __ZNSt3__16__treeINS_12__value_typeINS_12basic_stringIcNS_11char_traitsIcEENS_9allocatorIcEEEEM12T_LinkedListFbvEEENS_19__map_value_compareIS7_SB_NS_4lessIS7_EELb1EEENS5_ISB_EEE3endB8ne180100Ev, symObjAddr: 0x18524, symBinAddr: 0x10001C1A8, symSize: 0x1FC }
  - { offset: 0x135A0, size: 0x8, addend: 0x0, symName: __ZNSt3__16__treeINS_12__value_typeINS_12basic_stringIcNS_11char_traitsIcEENS_9allocatorIcEEEEM12T_LinkedListFbvEEENS_19__map_value_compareIS7_SB_NS_4lessIS7_EELb1EEENS5_ISB_EEE10value_compB8ne180100Ev, symObjAddr: 0x18720, symBinAddr: 0x10001C3A4, symSize: 0x28 }
  - { offset: 0x135C6, size: 0x8, addend: 0x0, symName: __ZNKSt3__119__map_value_compareINS_12basic_stringIcNS_11char_traitsIcEENS_9allocatorIcEEEENS_12__value_typeIS6_M12T_LinkedListFbvEEENS_4lessIS6_EELb1EEclB8ne180100ERKS6_RKSB_, symObjAddr: 0x18748, symBinAddr: 0x10001C3CC, symSize: 0x50 }
  - { offset: 0x1360A, size: 0x8, addend: 0x0, symName: __ZNKSt3__115__tree_iteratorINS_12__value_typeINS_12basic_stringIcNS_11char_traitsIcEENS_9allocatorIcEEEEM12T_LinkedListFbvEEEPNS_11__tree_nodeISB_PvEElEdeB8ne180100Ev, symObjAddr: 0x18798, symBinAddr: 0x10001C41C, symSize: 0x28 }
  - { offset: 0x13630, size: 0x8, addend: 0x0, symName: __ZNKSt3__119__map_value_compareINS_12basic_stringIcNS_11char_traitsIcEENS_9allocatorIcEEEENS_12__value_typeIS6_M12T_LinkedListFbvEEENS_4lessIS6_EELb1EEclB8ne180100ERKSB_RKS6_, symObjAddr: 0x187C0, symBinAddr: 0x10001C444, symSize: 0x48 }
  - { offset: 0x13674, size: 0x8, addend: 0x0, symName: __ZNSt3__115__tree_iteratorINS_12__value_typeINS_12basic_stringIcNS_11char_traitsIcEENS_9allocatorIcEEEEM12T_LinkedListFbvEEEPNS_11__tree_nodeISB_PvEElEC1B8ne180100EPNS_15__tree_end_nodeIPNS_16__tree_node_baseISD_EEEE, symObjAddr: 0x18808, symBinAddr: 0x10001C48C, symSize: 0x34 }
  - { offset: 0x136AD, size: 0x8, addend: 0x0, symName: __ZNKSt3__112__value_typeINS_12basic_stringIcNS_11char_traitsIcEENS_9allocatorIcEEEEM12T_LinkedListFbvEE11__get_valueB8ne180100Ev, symObjAddr: 0x1883C, symBinAddr: 0x10001C4C0, symSize: 0x24 }
  - { offset: 0x136D3, size: 0x8, addend: 0x0, symName: __ZNSt3__115__tree_iteratorINS_12__value_typeINS_12basic_stringIcNS_11char_traitsIcEENS_9allocatorIcEEEEM12T_LinkedListFbvEEEPNS_11__tree_nodeISB_PvEElEC2B8ne180100EPNS_15__tree_end_nodeIPNS_16__tree_node_baseISD_EEEE, symObjAddr: 0x18898, symBinAddr: 0x10001C51C, symSize: 0x70 }
  - { offset: 0x1370C, size: 0x8, addend: 0x0, symName: __ZNKSt3__16__treeINS_12__value_typeINS_12basic_stringIcNS_11char_traitsIcEENS_9allocatorIcEEEEM12T_LinkedListFbvEEENS_19__map_value_compareIS7_SB_NS_4lessIS7_EELb1EEENS5_ISB_EEE10__end_nodeB8ne180100Ev, symObjAddr: 0x18908, symBinAddr: 0x10001C58C, symSize: 0x2C }
  - { offset: 0x13732, size: 0x8, addend: 0x0, symName: __ZNKSt3__117__compressed_pairINS_15__tree_end_nodeIPNS_16__tree_node_baseIPvEEEENS_9allocatorINS_11__tree_nodeINS_12__value_typeINS_12basic_stringIcNS_11char_traitsIcEENS7_IcEEEEM12T_LinkedListFbvEEES3_EEEEE5firstB8ne180100Ev, symObjAddr: 0x18934, symBinAddr: 0x10001C5B8, symSize: 0x24 }
  - { offset: 0x13758, size: 0x8, addend: 0x0, symName: __ZNSt3__117__compressed_pairINS_15__tree_end_nodeIPNS_16__tree_node_baseIPvEEEENS_9allocatorINS_11__tree_nodeINS_12__value_typeINS_12basic_stringIcNS_11char_traitsIcEENS7_IcEEEEM12T_LinkedListFbvEEES3_EEEEE5firstB8ne180100Ev, symObjAddr: 0x18958, symBinAddr: 0x10001C5DC, symSize: 0x24 }
  - { offset: 0x1377E, size: 0x8, addend: 0x0, symName: __ZNSt3__117__compressed_pairImNS_19__map_value_compareINS_12basic_stringIcNS_11char_traitsIcEENS_9allocatorIcEEEENS_12__value_typeIS7_M12T_LinkedListFbvEEENS_4lessIS7_EELb1EEEE6secondB8ne180100Ev, symObjAddr: 0x1897C, symBinAddr: 0x10001C600, symSize: 0x24 }
  - { offset: 0x137A4, size: 0x8, addend: 0x0, symName: __ZNSt3__122__compressed_pair_elemINS_19__map_value_compareINS_12basic_stringIcNS_11char_traitsIcEENS_9allocatorIcEEEENS_12__value_typeIS7_M12T_LinkedListFbvEEENS_4lessIS7_EELb1EEELi1ELb1EE5__getB8ne180100Ev, symObjAddr: 0x189A0, symBinAddr: 0x10001C624, symSize: 0x14 }
  - { offset: 0x137CA, size: 0x8, addend: 0x0, symName: __ZNKSt3__115__tree_iteratorINS_12__value_typeINS_12basic_stringIcNS_11char_traitsIcEENS_9allocatorIcEEEEM12T_LinkedListFbvEEEPNS_11__tree_nodeISB_PvEElE8__get_npB8ne180100Ev, symObjAddr: 0x189B4, symBinAddr: 0x10001C638, symSize: 0x60 }
  - { offset: 0x137F0, size: 0x8, addend: 0x0, symName: __ZNSt3__114__map_iteratorINS_15__tree_iteratorINS_12__value_typeINS_12basic_stringIcNS_11char_traitsIcEENS_9allocatorIcEEEEM12T_LinkedListFbvEEEPNS_11__tree_nodeISC_PvEElEEEC2B8ne180100ESH_, symObjAddr: 0x18A14, symBinAddr: 0x10001C698, symSize: 0x1FC }
  - { offset: 0x1382E, size: 0x8, addend: 0x0, symName: __ZNSt3__16__treeINS_12__value_typeINS_12basic_stringIcNS_11char_traitsIcEENS_9allocatorIcEEEEM12T_LinkedListFbvEEENS_19__map_value_compareIS7_SB_NS_4lessIS7_EELb1EEENS5_ISB_EEE25__emplace_unique_key_argsIS7_JRKNS_21piecewise_construct_tENS_5tupleIJRKS7_EEENSM_IJEEEEEENS_4pairINS_15__tree_iteratorISB_PNS_11__tree_nodeISB_PvEElEEbEERKT_DpOT0_, symObjAddr: 0x18C10, symBinAddr: 0x10001C894, symSize: 0x518 }
  - { offset: 0x13914, size: 0x8, addend: 0x0, symName: __ZNKSt3__115__tree_iteratorINS_12__value_typeINS_12basic_stringIcNS_11char_traitsIcEENS_9allocatorIcEEEEM12T_LinkedListFbvEEEPNS_11__tree_nodeISB_PvEElEptB8ne180100Ev, symObjAddr: 0x19128, symBinAddr: 0x10001CDAC, symSize: 0x2C }
  - { offset: 0x1393A, size: 0x8, addend: 0x0, symName: __ZNSt3__112__value_typeINS_12basic_stringIcNS_11char_traitsIcEENS_9allocatorIcEEEEM12T_LinkedListFbvEE11__get_valueB8ne180100Ev, symObjAddr: 0x19154, symBinAddr: 0x10001CDD8, symSize: 0x24 }
  - { offset: 0x13960, size: 0x8, addend: 0x0, symName: __ZNSt3__16__treeINS_12__value_typeINS_12basic_stringIcNS_11char_traitsIcEENS_9allocatorIcEEEEM12T_LinkedListFbvEEENS_19__map_value_compareIS7_SB_NS_4lessIS7_EELb1EEENS5_ISB_EEE12__find_equalIS7_EERPNS_16__tree_node_baseIPvEERPNS_15__tree_end_nodeISM_EERKT_, symObjAddr: 0x19178, symBinAddr: 0x10001CDFC, symSize: 0x3F0 }
  - { offset: 0x139CD, size: 0x8, addend: 0x0, symName: __ZNSt3__16__treeINS_12__value_typeINS_12basic_stringIcNS_11char_traitsIcEENS_9allocatorIcEEEEM12T_LinkedListFbvEEENS_19__map_value_compareIS7_SB_NS_4lessIS7_EELb1EEENS5_ISB_EEE16__construct_nodeIJRKNS_21piecewise_construct_tENS_5tupleIJRKS7_EEENSM_IJEEEEEENS_10unique_ptrINS_11__tree_nodeISB_PvEENS_22__tree_node_destructorINS5_ISU_EEEEEEDpOT_, symObjAddr: 0x19568, symBinAddr: 0x10001D1EC, symSize: 0x3A8 }
  - { offset: 0x13A5C, size: 0x8, addend: 0x0, symName: __ZNSt3__16__treeINS_12__value_typeINS_12basic_stringIcNS_11char_traitsIcEENS_9allocatorIcEEEEM12T_LinkedListFbvEEENS_19__map_value_compareIS7_SB_NS_4lessIS7_EELb1EEENS5_ISB_EEE16__insert_node_atEPNS_15__tree_end_nodeIPNS_16__tree_node_baseIPvEEEERSM_SM_, symObjAddr: 0x19910, symBinAddr: 0x10001D594, symSize: 0x370 }
  - { offset: 0x13AB1, size: 0x8, addend: 0x0, symName: __ZNKSt3__110unique_ptrINS_11__tree_nodeINS_12__value_typeINS_12basic_stringIcNS_11char_traitsIcEENS_9allocatorIcEEEEM12T_LinkedListFbvEEEPvEENS_22__tree_node_destructorINS6_ISE_EEEEE3getB8ne180100Ev, symObjAddr: 0x19C80, symBinAddr: 0x10001D904, symSize: 0x6C }
  - { offset: 0x13AD7, size: 0x8, addend: 0x0, symName: __ZNSt3__110unique_ptrINS_11__tree_nodeINS_12__value_typeINS_12basic_stringIcNS_11char_traitsIcEENS_9allocatorIcEEEEM12T_LinkedListFbvEEEPvEENS_22__tree_node_destructorINS6_ISE_EEEEE7releaseB8ne180100Ev, symObjAddr: 0x19CEC, symBinAddr: 0x10001D970, symSize: 0xB8 }
  - { offset: 0x13B0C, size: 0x8, addend: 0x0, symName: __ZNSt3__110unique_ptrINS_11__tree_nodeINS_12__value_typeINS_12basic_stringIcNS_11char_traitsIcEENS_9allocatorIcEEEEM12T_LinkedListFbvEEEPvEENS_22__tree_node_destructorINS6_ISE_EEEEED1B8ne180100Ev, symObjAddr: 0x19DA4, symBinAddr: 0x10001DA28, symSize: 0x2C }
  - { offset: 0x13B36, size: 0x8, addend: 0x0, symName: __ZNSt3__115__tree_iteratorINS_12__value_typeINS_12basic_stringIcNS_11char_traitsIcEENS_9allocatorIcEEEEM12T_LinkedListFbvEEEPNS_11__tree_nodeISB_PvEElEC1B8ne180100ESF_, symObjAddr: 0x19DD0, symBinAddr: 0x10001DA54, symSize: 0x34 }
  - { offset: 0x13B75, size: 0x8, addend: 0x0, symName: __ZNSt3__14pairINS_15__tree_iteratorINS_12__value_typeINS_12basic_stringIcNS_11char_traitsIcEENS_9allocatorIcEEEEM12T_LinkedListFbvEEEPNS_11__tree_nodeISC_PvEElEEbEC1B8ne180100ISH_RbLi0EEEOT_OT0_, symObjAddr: 0x19E04, symBinAddr: 0x10001DA88, symSize: 0x3C }
  - { offset: 0x13BD3, size: 0x8, addend: 0x0, symName: __ZNKSt3__16__treeINS_12__value_typeINS_12basic_stringIcNS_11char_traitsIcEENS_9allocatorIcEEEEM12T_LinkedListFbvEEENS_19__map_value_compareIS7_SB_NS_4lessIS7_EELb1EEENS5_ISB_EEE10__root_ptrB8ne180100Ev, symObjAddr: 0x19E40, symBinAddr: 0x10001DAC4, symSize: 0x24 }
  - { offset: 0x13BF9, size: 0x8, addend: 0x0, symName: __ZNSt3__16__treeINS_12__value_typeINS_12basic_stringIcNS_11char_traitsIcEENS_9allocatorIcEEEEM12T_LinkedListFbvEEENS_19__map_value_compareIS7_SB_NS_4lessIS7_EELb1EEENS5_ISB_EEE12__node_allocB8ne180100Ev, symObjAddr: 0x19E64, symBinAddr: 0x10001DAE8, symSize: 0x28 }
  - { offset: 0x13C1F, size: 0x8, addend: 0x0, symName: __ZNSt3__116allocator_traitsINS_9allocatorINS_11__tree_nodeINS_12__value_typeINS_12basic_stringIcNS_11char_traitsIcEENS1_IcEEEEM12T_LinkedListFbvEEEPvEEEEE8allocateB8ne180100ERSF_m, symObjAddr: 0x19E8C, symBinAddr: 0x10001DB10, symSize: 0x2C }
  - { offset: 0x13C52, size: 0x8, addend: 0x0, symName: __ZNSt3__122__tree_node_destructorINS_9allocatorINS_11__tree_nodeINS_12__value_typeINS_12basic_stringIcNS_11char_traitsIcEENS1_IcEEEEM12T_LinkedListFbvEEEPvEEEEEC1B8ne180100ERSF_b, symObjAddr: 0x19EB8, symBinAddr: 0x10001DB3C, symSize: 0x48 }
  - { offset: 0x13CA0, size: 0x8, addend: 0x0, symName: __ZNSt3__110unique_ptrINS_11__tree_nodeINS_12__value_typeINS_12basic_stringIcNS_11char_traitsIcEENS_9allocatorIcEEEEM12T_LinkedListFbvEEEPvEENS_22__tree_node_destructorINS6_ISE_EEEEEC1B8ne180100ILb1EvEEPSE_NS_16__dependent_typeINS_27__unique_ptr_deleter_sfinaeISH_EEXT_EE20__good_rval_ref_typeE, symObjAddr: 0x19F00, symBinAddr: 0x10001DB84, symSize: 0x3C }
  - { offset: 0x13CF1, size: 0x8, addend: 0x0, symName: __ZNSt3__116allocator_traitsINS_9allocatorINS_11__tree_nodeINS_12__value_typeINS_12basic_stringIcNS_11char_traitsIcEENS1_IcEEEEM12T_LinkedListFbvEEEPvEEEEE9constructB8ne180100INS_4pairIKS8_SB_EEJRKNS_21piecewise_construct_tENS_5tupleIJRSJ_EEENSO_IJEEEEvEEvRSF_PT_DpOT0_, symObjAddr: 0x19F3C, symBinAddr: 0x10001DBC0, symSize: 0x44 }
  - { offset: 0x13D70, size: 0x8, addend: 0x0, symName: __ZNSt3__122__tree_key_value_typesINS_12__value_typeINS_12basic_stringIcNS_11char_traitsIcEENS_9allocatorIcEEEEM12T_LinkedListFbvEEEE9__get_ptrB8ne180100ERSB_, symObjAddr: 0x19F80, symBinAddr: 0x10001DC04, symSize: 0x24 }
  - { offset: 0x13D94, size: 0x8, addend: 0x0, symName: __ZNKSt3__110unique_ptrINS_11__tree_nodeINS_12__value_typeINS_12basic_stringIcNS_11char_traitsIcEENS_9allocatorIcEEEEM12T_LinkedListFbvEEEPvEENS_22__tree_node_destructorINS6_ISE_EEEEEptB8ne180100Ev, symObjAddr: 0x19FA4, symBinAddr: 0x10001DC28, symSize: 0x6C }
  - { offset: 0x13DBA, size: 0x8, addend: 0x0, symName: __ZNSt3__110unique_ptrINS_11__tree_nodeINS_12__value_typeINS_12basic_stringIcNS_11char_traitsIcEENS_9allocatorIcEEEEM12T_LinkedListFbvEEEPvEENS_22__tree_node_destructorINS6_ISE_EEEEE11get_deleterB8ne180100Ev, symObjAddr: 0x1A010, symBinAddr: 0x10001DC94, symSize: 0x24 }
  - { offset: 0x13DE0, size: 0x8, addend: 0x0, symName: __ZNSt3__117__compressed_pairINS_15__tree_end_nodeIPNS_16__tree_node_baseIPvEEEENS_9allocatorINS_11__tree_nodeINS_12__value_typeINS_12basic_stringIcNS_11char_traitsIcEENS7_IcEEEEM12T_LinkedListFbvEEES3_EEEEE6secondB8ne180100Ev, symObjAddr: 0x1A034, symBinAddr: 0x10001DCB8, symSize: 0x24 }
  - { offset: 0x13E06, size: 0x8, addend: 0x0, symName: __ZNSt3__122__compressed_pair_elemINS_9allocatorINS_11__tree_nodeINS_12__value_typeINS_12basic_stringIcNS_11char_traitsIcEENS1_IcEEEEM12T_LinkedListFbvEEEPvEEEELi1ELb1EE5__getB8ne180100Ev, symObjAddr: 0x1A058, symBinAddr: 0x10001DCDC, symSize: 0x14 }
  - { offset: 0x13E2C, size: 0x8, addend: 0x0, symName: __ZNSt3__19allocatorINS_11__tree_nodeINS_12__value_typeINS_12basic_stringIcNS_11char_traitsIcEENS0_IcEEEEM12T_LinkedListFbvEEEPvEEE8allocateB8ne180100Em, symObjAddr: 0x1A06C, symBinAddr: 0x10001DCF0, symSize: 0x60 }
  - { offset: 0x13E6A, size: 0x8, addend: 0x0, symName: __ZNSt3__116allocator_traitsINS_9allocatorINS_11__tree_nodeINS_12__value_typeINS_12basic_stringIcNS_11char_traitsIcEENS1_IcEEEEM12T_LinkedListFbvEEEPvEEEEE8max_sizeB8ne180100ISF_vEEmRKSF_, symObjAddr: 0x1A0CC, symBinAddr: 0x10001DD50, symSize: 0x24 }
  - { offset: 0x13E98, size: 0x8, addend: 0x0, symName: __ZNKSt3__19allocatorINS_11__tree_nodeINS_12__value_typeINS_12basic_stringIcNS_11char_traitsIcEENS0_IcEEEEM12T_LinkedListFbvEEEPvEEE8max_sizeB8ne180100Ev, symObjAddr: 0x1A0F0, symBinAddr: 0x10001DD74, symSize: 0x20 }
  - { offset: 0x13EBE, size: 0x8, addend: 0x0, symName: __ZNSt3__122__tree_node_destructorINS_9allocatorINS_11__tree_nodeINS_12__value_typeINS_12basic_stringIcNS_11char_traitsIcEENS1_IcEEEEM12T_LinkedListFbvEEEPvEEEEEC2B8ne180100ERSF_b, symObjAddr: 0x1A110, symBinAddr: 0x10001DD94, symSize: 0xF0 }
  - { offset: 0x13F06, size: 0x8, addend: 0x0, symName: __ZNSt3__110unique_ptrINS_11__tree_nodeINS_12__value_typeINS_12basic_stringIcNS_11char_traitsIcEENS_9allocatorIcEEEEM12T_LinkedListFbvEEEPvEENS_22__tree_node_destructorINS6_ISE_EEEEEC2B8ne180100ILb1EvEEPSE_NS_16__dependent_typeINS_27__unique_ptr_deleter_sfinaeISH_EEXT_EE20__good_rval_ref_typeE, symObjAddr: 0x1A200, symBinAddr: 0x10001DE84, symSize: 0x258 }
  - { offset: 0x13F5D, size: 0x8, addend: 0x0, symName: __ZNSt3__117__compressed_pairIPNS_11__tree_nodeINS_12__value_typeINS_12basic_stringIcNS_11char_traitsIcEENS_9allocatorIcEEEEM12T_LinkedListFbvEEEPvEENS_22__tree_node_destructorINS6_ISE_EEEEEC1B8ne180100IRSF_SI_EEOT_OT0_, symObjAddr: 0x1A458, symBinAddr: 0x10001E0DC, symSize: 0x3C }
  - { offset: 0x13FB5, size: 0x8, addend: 0x0, symName: __ZNSt3__117__compressed_pairIPNS_11__tree_nodeINS_12__value_typeINS_12basic_stringIcNS_11char_traitsIcEENS_9allocatorIcEEEEM12T_LinkedListFbvEEEPvEENS_22__tree_node_destructorINS6_ISE_EEEEEC2B8ne180100IRSF_SI_EEOT_OT0_, symObjAddr: 0x1A494, symBinAddr: 0x10001E118, symSize: 0x48 }
  - { offset: 0x1400D, size: 0x8, addend: 0x0, symName: __ZNSt3__122__compressed_pair_elemIPNS_11__tree_nodeINS_12__value_typeINS_12basic_stringIcNS_11char_traitsIcEENS_9allocatorIcEEEEM12T_LinkedListFbvEEEPvEELi0ELb0EEC2B8ne180100IRSF_vEEOT_, symObjAddr: 0x1A4DC, symBinAddr: 0x10001E160, symSize: 0xB0 }
  - { offset: 0x1404F, size: 0x8, addend: 0x0, symName: __ZNSt3__122__compressed_pair_elemINS_22__tree_node_destructorINS_9allocatorINS_11__tree_nodeINS_12__value_typeINS_12basic_stringIcNS_11char_traitsIcEENS2_IcEEEEM12T_LinkedListFbvEEEPvEEEEEELi1ELb0EEC2B8ne180100ISH_vEEOT_, symObjAddr: 0x1A58C, symBinAddr: 0x10001E210, symSize: 0x38 }
  - { offset: 0x14091, size: 0x8, addend: 0x0, symName: __ZNSt3__19allocatorINS_11__tree_nodeINS_12__value_typeINS_12basic_stringIcNS_11char_traitsIcEENS0_IcEEEEM12T_LinkedListFbvEEEPvEEE9constructB8ne180100INS_4pairIKS7_SA_EEJRKNS_21piecewise_construct_tENS_5tupleIJRSH_EEENSM_IJEEEEEEvPT_DpOT0_, symObjAddr: 0x1A5C4, symBinAddr: 0x10001E248, symSize: 0x20C }
  - { offset: 0x14112, size: 0x8, addend: 0x0, symName: __ZNSt3__14pairIKNS_12basic_stringIcNS_11char_traitsIcEENS_9allocatorIcEEEEM12T_LinkedListFbvEEC1B8ne180100IJRS7_EJEEENS_21piecewise_construct_tENS_5tupleIJDpT_EEENSF_IJDpT0_EEE, symObjAddr: 0x1A7D0, symBinAddr: 0x10001E454, symSize: 0x224 }
  - { offset: 0x14183, size: 0x8, addend: 0x0, symName: __ZNSt3__14pairIKNS_12basic_stringIcNS_11char_traitsIcEENS_9allocatorIcEEEEM12T_LinkedListFbvEEC1B8ne180100IJRS7_EJEJLm0EEJEEENS_21piecewise_construct_tERNS_5tupleIJDpT_EEERNSF_IJDpT0_EEENS_15__tuple_indicesIJXspT1_EEEENSO_IJXspT2_EEEE, symObjAddr: 0x1A9F4, symBinAddr: 0x10001E678, symSize: 0x3C }
  - { offset: 0x14213, size: 0x8, addend: 0x0, symName: __ZNSt3__14pairIKNS_12basic_stringIcNS_11char_traitsIcEENS_9allocatorIcEEEEM12T_LinkedListFbvEEC2B8ne180100IJRS7_EJEJLm0EEJEEENS_21piecewise_construct_tERNS_5tupleIJDpT_EEERNSF_IJDpT0_EEENS_15__tuple_indicesIJXspT1_EEEENSO_IJXspT2_EEEE, symObjAddr: 0x1AA30, symBinAddr: 0x10001E6B4, symSize: 0x90 }
  - { offset: 0x142A3, size: 0x8, addend: 0x0, symName: __ZNKSt3__117__compressed_pairIPNS_11__tree_nodeINS_12__value_typeINS_12basic_stringIcNS_11char_traitsIcEENS_9allocatorIcEEEEM12T_LinkedListFbvEEEPvEENS_22__tree_node_destructorINS6_ISE_EEEEE5firstB8ne180100Ev, symObjAddr: 0x1AAC0, symBinAddr: 0x10001E744, symSize: 0x24 }
  - { offset: 0x142C9, size: 0x8, addend: 0x0, symName: __ZNKSt3__122__compressed_pair_elemIPNS_11__tree_nodeINS_12__value_typeINS_12basic_stringIcNS_11char_traitsIcEENS_9allocatorIcEEEEM12T_LinkedListFbvEEEPvEELi0ELb0EE5__getB8ne180100Ev, symObjAddr: 0x1AAE4, symBinAddr: 0x10001E768, symSize: 0x14 }
  - { offset: 0x142EF, size: 0x8, addend: 0x0, symName: __ZNSt3__117__compressed_pairIPNS_11__tree_nodeINS_12__value_typeINS_12basic_stringIcNS_11char_traitsIcEENS_9allocatorIcEEEEM12T_LinkedListFbvEEEPvEENS_22__tree_node_destructorINS6_ISE_EEEEE6secondB8ne180100Ev, symObjAddr: 0x1AAF8, symBinAddr: 0x10001E77C, symSize: 0x28 }
  - { offset: 0x14315, size: 0x8, addend: 0x0, symName: __ZNSt3__122__compressed_pair_elemINS_22__tree_node_destructorINS_9allocatorINS_11__tree_nodeINS_12__value_typeINS_12basic_stringIcNS_11char_traitsIcEENS2_IcEEEEM12T_LinkedListFbvEEEPvEEEEEELi1ELb0EE5__getB8ne180100Ev, symObjAddr: 0x1AB20, symBinAddr: 0x10001E7A4, symSize: 0x14 }
  - { offset: 0x1433B, size: 0x8, addend: 0x0, symName: __ZNSt3__16__treeINS_12__value_typeINS_12basic_stringIcNS_11char_traitsIcEENS_9allocatorIcEEEEM12T_LinkedListFbvEEENS_19__map_value_compareIS7_SB_NS_4lessIS7_EELb1EEENS5_ISB_EEE12__begin_nodeB8ne180100Ev, symObjAddr: 0x1AB34, symBinAddr: 0x10001E7B8, symSize: 0x14 }
  - { offset: 0x14361, size: 0x8, addend: 0x0, symName: __ZNSt3__16__treeINS_12__value_typeINS_12basic_stringIcNS_11char_traitsIcEENS_9allocatorIcEEEEM12T_LinkedListFbvEEENS_19__map_value_compareIS7_SB_NS_4lessIS7_EELb1EEENS5_ISB_EEE4sizeB8ne180100Ev, symObjAddr: 0x1AB48, symBinAddr: 0x10001E7CC, symSize: 0x28 }
  - { offset: 0x14387, size: 0x8, addend: 0x0, symName: __ZNSt3__117__compressed_pairImNS_19__map_value_compareINS_12basic_stringIcNS_11char_traitsIcEENS_9allocatorIcEEEENS_12__value_typeIS7_M12T_LinkedListFbvEEENS_4lessIS7_EELb1EEEE5firstB8ne180100Ev, symObjAddr: 0x1AB70, symBinAddr: 0x10001E7F4, symSize: 0x24 }
  - { offset: 0x143AD, size: 0x8, addend: 0x0, symName: __ZNSt3__117__compressed_pairIPNS_11__tree_nodeINS_12__value_typeINS_12basic_stringIcNS_11char_traitsIcEENS_9allocatorIcEEEEM12T_LinkedListFbvEEEPvEENS_22__tree_node_destructorINS6_ISE_EEEEE5firstB8ne180100Ev, symObjAddr: 0x1AB94, symBinAddr: 0x10001E818, symSize: 0x24 }
  - { offset: 0x143D3, size: 0x8, addend: 0x0, symName: __ZNSt3__122__compressed_pair_elemIPNS_11__tree_nodeINS_12__value_typeINS_12basic_stringIcNS_11char_traitsIcEENS_9allocatorIcEEEEM12T_LinkedListFbvEEEPvEELi0ELb0EE5__getB8ne180100Ev, symObjAddr: 0x1ABB8, symBinAddr: 0x10001E83C, symSize: 0x14 }
  - { offset: 0x143F9, size: 0x8, addend: 0x0, symName: __ZNSt3__110unique_ptrINS_11__tree_nodeINS_12__value_typeINS_12basic_stringIcNS_11char_traitsIcEENS_9allocatorIcEEEEM12T_LinkedListFbvEEEPvEENS_22__tree_node_destructorINS6_ISE_EEEEED2B8ne180100Ev, symObjAddr: 0x1ABCC, symBinAddr: 0x10001E850, symSize: 0x30 }
  - { offset: 0x14423, size: 0x8, addend: 0x0, symName: __ZNSt3__110unique_ptrINS_11__tree_nodeINS_12__value_typeINS_12basic_stringIcNS_11char_traitsIcEENS_9allocatorIcEEEEM12T_LinkedListFbvEEEPvEENS_22__tree_node_destructorINS6_ISE_EEEEE5resetB8ne180100EPSE_, symObjAddr: 0x1ABFC, symBinAddr: 0x10001E880, symSize: 0xEC }
  - { offset: 0x14467, size: 0x8, addend: 0x0, symName: __ZNSt3__122__tree_node_destructorINS_9allocatorINS_11__tree_nodeINS_12__value_typeINS_12basic_stringIcNS_11char_traitsIcEENS1_IcEEEEM12T_LinkedListFbvEEEPvEEEEEclB8ne180100EPSE_, symObjAddr: 0x1ACE8, symBinAddr: 0x10001E96C, symSize: 0x168 }
  - { offset: 0x1449C, size: 0x8, addend: 0x0, symName: __ZNSt3__116allocator_traitsINS_9allocatorINS_11__tree_nodeINS_12__value_typeINS_12basic_stringIcNS_11char_traitsIcEENS1_IcEEEEM12T_LinkedListFbvEEEPvEEEEE7destroyB8ne180100INS_4pairIKS8_SB_EEvvEEvRSF_PT_, symObjAddr: 0x1AE50, symBinAddr: 0x10001EAD4, symSize: 0x28 }
  - { offset: 0x144D7, size: 0x8, addend: 0x0, symName: __ZNSt3__116allocator_traitsINS_9allocatorINS_11__tree_nodeINS_12__value_typeINS_12basic_stringIcNS_11char_traitsIcEENS1_IcEEEEM12T_LinkedListFbvEEEPvEEEEE10deallocateB8ne180100ERSF_PSE_m, symObjAddr: 0x1AE78, symBinAddr: 0x10001EAFC, symSize: 0x34 }
  - { offset: 0x14519, size: 0x8, addend: 0x0, symName: __ZNSt3__14pairIKNS_12basic_stringIcNS_11char_traitsIcEENS_9allocatorIcEEEEM12T_LinkedListFbvEED1Ev, symObjAddr: 0x1AED0, symBinAddr: 0x10001EB54, symSize: 0x2C }
  - { offset: 0x14545, size: 0x8, addend: 0x0, symName: __ZNSt3__14pairIKNS_12basic_stringIcNS_11char_traitsIcEENS_9allocatorIcEEEEM12T_LinkedListFbvEED2Ev, symObjAddr: 0x1AEFC, symBinAddr: 0x10001EB80, symSize: 0x2C }
  - { offset: 0x14571, size: 0x8, addend: 0x0, symName: __ZNSt3__19allocatorINS_11__tree_nodeINS_12__value_typeINS_12basic_stringIcNS_11char_traitsIcEENS0_IcEEEEM12T_LinkedListFbvEEEPvEEE10deallocateB8ne180100EPSD_m, symObjAddr: 0x1AF28, symBinAddr: 0x10001EBAC, symSize: 0x50 }
  - { offset: 0x145B3, size: 0x8, addend: 0x0, symName: __ZNSt3__115__tree_iteratorINS_12__value_typeINS_12basic_stringIcNS_11char_traitsIcEENS_9allocatorIcEEEEM12T_LinkedListFbvEEEPNS_11__tree_nodeISB_PvEElEC2B8ne180100ESF_, symObjAddr: 0x1AF78, symBinAddr: 0x10001EBFC, symSize: 0x70 }
  - { offset: 0x145EC, size: 0x8, addend: 0x0, symName: __ZNSt3__14pairINS_15__tree_iteratorINS_12__value_typeINS_12basic_stringIcNS_11char_traitsIcEENS_9allocatorIcEEEEM12T_LinkedListFbvEEEPNS_11__tree_nodeISC_PvEElEEbEC2B8ne180100ISH_RbLi0EEEOT_OT0_, symObjAddr: 0x1AFE8, symBinAddr: 0x10001EC6C, symSize: 0x118 }
  - { offset: 0x1464A, size: 0x8, addend: 0x0, symName: __ZNSt3__114pointer_traitsIPNS_12__value_typeINS_12basic_stringIcNS_11char_traitsIcEENS_9allocatorIcEEEEM12T_LinkedListFbvEEEE10pointer_toB8ne180100ERSB_, symObjAddr: 0x1B100, symBinAddr: 0x10001ED84, symSize: 0x14 }
  - { offset: 0x1466D, size: 0x8, addend: 0x0, symName: __ZNSt3__13mapINS_12basic_stringIcNS_11char_traitsIcEENS_9allocatorIcEEEEM12T_LinkedListFbvENS_4lessIS6_EENS4_INS_4pairIKS6_S9_EEEEE5beginB8ne180100Ev, symObjAddr: 0x1B14C, symBinAddr: 0x10001EDD0, symSize: 0x2A4 }
  - { offset: 0x14694, size: 0x8, addend: 0x0, symName: __ZNKSt3__114__map_iteratorINS_15__tree_iteratorINS_12__value_typeINS_12basic_stringIcNS_11char_traitsIcEENS_9allocatorIcEEEEM12T_LinkedListFbvEEEPNS_11__tree_nodeISC_PvEElEEEdeB8ne180100Ev, symObjAddr: 0x1B3F0, symBinAddr: 0x10001F074, symSize: 0x28 }
  - { offset: 0x146BA, size: 0x8, addend: 0x0, symName: __ZNSt3__114__map_iteratorINS_15__tree_iteratorINS_12__value_typeINS_12basic_stringIcNS_11char_traitsIcEENS_9allocatorIcEEEEM12T_LinkedListFbvEEEPNS_11__tree_nodeISC_PvEElEEEppB8ne180100Ev, symObjAddr: 0x1B418, symBinAddr: 0x10001F09C, symSize: 0x2C }
  - { offset: 0x146E0, size: 0x8, addend: 0x0, symName: __ZNKSt3__13mapINS_12basic_stringIcNS_11char_traitsIcEENS_9allocatorIcEEEEM12T_LinkedListFbvENS_4lessIS6_EENS4_INS_4pairIKS6_S9_EEEEE4sizeB8ne180100Ev, symObjAddr: 0x1B444, symBinAddr: 0x10001F0C8, symSize: 0x6C }
  - { offset: 0x14706, size: 0x8, addend: 0x0, symName: __ZNSt3__16__treeINS_12__value_typeINS_12basic_stringIcNS_11char_traitsIcEENS_9allocatorIcEEEEM12T_LinkedListFbvEEENS_19__map_value_compareIS7_SB_NS_4lessIS7_EELb1EEENS5_ISB_EEE5beginB8ne180100Ev, symObjAddr: 0x1B4B0, symBinAddr: 0x10001F134, symSize: 0x230 }
  - { offset: 0x1472D, size: 0x8, addend: 0x0, symName: __ZNSt3__115__tree_iteratorINS_12__value_typeINS_12basic_stringIcNS_11char_traitsIcEENS_9allocatorIcEEEEM12T_LinkedListFbvEEEPNS_11__tree_nodeISB_PvEElEppB8ne180100Ev, symObjAddr: 0x1B6E0, symBinAddr: 0x10001F364, symSize: 0xA8 }
  - { offset: 0x14753, size: 0x8, addend: 0x0, symName: __ZNKSt3__16__treeINS_12__value_typeINS_12basic_stringIcNS_11char_traitsIcEENS_9allocatorIcEEEEM12T_LinkedListFbvEEENS_19__map_value_compareIS7_SB_NS_4lessIS7_EELb1EEENS5_ISB_EEE4sizeB8ne180100Ev, symObjAddr: 0x1B788, symBinAddr: 0x10001F40C, symSize: 0x28 }
  - { offset: 0x14779, size: 0x8, addend: 0x0, symName: __ZNKSt3__117__compressed_pairImNS_19__map_value_compareINS_12basic_stringIcNS_11char_traitsIcEENS_9allocatorIcEEEENS_12__value_typeIS7_M12T_LinkedListFbvEEENS_4lessIS7_EELb1EEEE5firstB8ne180100Ev, symObjAddr: 0x1B7B0, symBinAddr: 0x10001F434, symSize: 0x24 }
  - { offset: 0x1479F, size: 0x8, addend: 0x0, symName: __ZNKSt3__114__map_iteratorINS_15__tree_iteratorINS_12__value_typeINS_12basic_stringIcNS_11char_traitsIcEENS_9allocatorIcEEEEM12T_LinkedListFbvEEEPNS_11__tree_nodeISC_PvEElEEEptB8ne180100Ev, symObjAddr: 0x1B7D4, symBinAddr: 0x10001F458, symSize: 0x2C }
  - { offset: 0x147C5, size: 0x8, addend: 0x0, symName: __ZNSt3__114pointer_traitsIPNS_4pairIKNS_12basic_stringIcNS_11char_traitsIcEENS_9allocatorIcEEEEM12T_LinkedListFbvEEEE10pointer_toB8ne180100ERSC_, symObjAddr: 0x1B800, symBinAddr: 0x10001F484, symSize: 0x14 }
  - { offset: 0x147E8, size: 0x8, addend: 0x0, symName: __ZN12T_LinkedListD2Ev, symObjAddr: 0x1B814, symBinAddr: 0x10001F498, symSize: 0x50 }
  - { offset: 0x14814, size: 0x8, addend: 0x0, symName: __ZN10RandomTestD2Ev, symObjAddr: 0x1B864, symBinAddr: 0x10001F4E8, symSize: 0x54 }
  - { offset: 0x14840, size: 0x8, addend: 0x0, symName: __ZNSt3__112basic_stringIcNS_11char_traitsIcEENS_9allocatorIcEEEC2B8ne180100ILi0EEEPKc, symObjAddr: 0x1B8B8, symBinAddr: 0x10001F53C, symSize: 0x208 }
  - { offset: 0x14881, size: 0x8, addend: 0x0, symName: __ZNSt3__117__compressed_pairINS_12basic_stringIcNS_11char_traitsIcEENS_9allocatorIcEEE5__repES5_EC1B8ne180100INS_18__default_init_tagESA_EEOT_OT0_, symObjAddr: 0x1BAC0, symBinAddr: 0x10001F744, symSize: 0x3C }
  - { offset: 0x148D9, size: 0x8, addend: 0x0, symName: __ZNSt3__111char_traitsIcE6lengthB8ne180100EPKc, symObjAddr: 0x1BAFC, symBinAddr: 0x10001F780, symSize: 0x40 }
  - { offset: 0x148FC, size: 0x8, addend: 0x0, symName: __ZNSt3__117__compressed_pairINS_12basic_stringIcNS_11char_traitsIcEENS_9allocatorIcEEE5__repES5_EC2B8ne180100INS_18__default_init_tagESA_EEOT_OT0_, symObjAddr: 0x1BB3C, symBinAddr: 0x10001F7C0, symSize: 0x3C }
  - { offset: 0x14954, size: 0x8, addend: 0x0, symName: __ZNSt3__122__compressed_pair_elemINS_12basic_stringIcNS_11char_traitsIcEENS_9allocatorIcEEE5__repELi0ELb0EEC2B8ne180100ENS_18__default_init_tagE, symObjAddr: 0x1BB78, symBinAddr: 0x10001F7FC, symSize: 0x14 }
  - { offset: 0x14989, size: 0x8, addend: 0x0, symName: __ZNSt3__122__compressed_pair_elemINS_9allocatorIcEELi1ELb1EEC2B8ne180100ENS_18__default_init_tagE, symObjAddr: 0x1BB8C, symBinAddr: 0x10001F810, symSize: 0x2C }
  - { offset: 0x149BE, size: 0x8, addend: 0x0, symName: __ZNSt3__19allocatorIcEC2B8ne180100Ev, symObjAddr: 0x1BBB8, symBinAddr: 0x10001F83C, symSize: 0x2C }
  - { offset: 0x149E8, size: 0x8, addend: 0x0, symName: __ZNSt3__116__non_trivial_ifILb1ENS_9allocatorIcEEEC2B8ne180100Ev, symObjAddr: 0x1BBE4, symBinAddr: 0x10001F868, symSize: 0x14 }
  - { offset: 0x14A30, size: 0x8, addend: 0x0, symName: __ZNKSt3__113basic_ostreamIcNS_11char_traitsIcEEE6sentrycvbB8ne180100Ev, symObjAddr: 0x1C454, symBinAddr: 0x1000200D8, symSize: 0x88 }
  - { offset: 0x14A56, size: 0x8, addend: 0x0, symName: __ZNSt3__119ostreambuf_iteratorIcNS_11char_traitsIcEEEC1B8ne180100ERNS_13basic_ostreamIcS2_EE, symObjAddr: 0x1CCA8, symBinAddr: 0x10002092C, symSize: 0x34 }
  - { offset: 0x14A8E, size: 0x8, addend: 0x0, symName: __ZNKSt3__18ios_base5flagsB8ne180100Ev, symObjAddr: 0x1CCDC, symBinAddr: 0x100020960, symSize: 0x8C }
  - { offset: 0x14AB6, size: 0x8, addend: 0x0, symName: __ZNKSt3__19basic_iosIcNS_11char_traitsIcEEE4fillB8ne180100Ev, symObjAddr: 0x1CD68, symBinAddr: 0x1000209EC, symSize: 0x198 }
  - { offset: 0x14ADE, size: 0x8, addend: 0x0, symName: __ZNKSt3__119ostreambuf_iteratorIcNS_11char_traitsIcEEE6failedB8ne180100Ev, symObjAddr: 0x1CF00, symBinAddr: 0x100020B84, symSize: 0x6C }
  - { offset: 0x14B04, size: 0x8, addend: 0x0, symName: __ZNSt3__19basic_iosIcNS_11char_traitsIcEEE8setstateB8ne180100Ej, symObjAddr: 0x1CF6C, symBinAddr: 0x100020BF0, symSize: 0x2C }
  - { offset: 0x14B39, size: 0x8, addend: 0x0, symName: __ZNKSt3__18ios_base5widthB8ne180100Ev, symObjAddr: 0x1CF98, symBinAddr: 0x100020C1C, symSize: 0x64 }
  - { offset: 0x14B61, size: 0x8, addend: 0x0, symName: __ZNSt3__115basic_streambufIcNS_11char_traitsIcEEE5sputnB8ne180100EPKcl, symObjAddr: 0x1CFFC, symBinAddr: 0x100020C80, symSize: 0xC8 }
  - { offset: 0x14BA3, size: 0x8, addend: 0x0, symName: __ZNSt3__112basic_stringIcNS_11char_traitsIcEENS_9allocatorIcEEEC1B8ne180100Emc, symObjAddr: 0x1D0C4, symBinAddr: 0x100020D48, symSize: 0x3C }
  - { offset: 0x14BEB, size: 0x8, addend: 0x0, symName: __ZNSt3__112basic_stringIcNS_11char_traitsIcEENS_9allocatorIcEEE4dataB8ne180100Ev, symObjAddr: 0x1D100, symBinAddr: 0x100020D84, symSize: 0x28 }
  - { offset: 0x14C11, size: 0x8, addend: 0x0, symName: __ZNSt3__18ios_base5widthB8ne180100El, symObjAddr: 0x1D128, symBinAddr: 0x100020DAC, symSize: 0xB8 }
  - { offset: 0x14C57, size: 0x8, addend: 0x0, symName: __ZNSt3__112basic_stringIcNS_11char_traitsIcEENS_9allocatorIcEEEC2B8ne180100Emc, symObjAddr: 0x1D1E0, symBinAddr: 0x100020E64, symSize: 0x1FC }
  - { offset: 0x14CA2, size: 0x8, addend: 0x0, symName: __ZNSt3__112basic_stringIcNS_11char_traitsIcEENS_9allocatorIcEEE13__get_pointerB8ne180100Ev, symObjAddr: 0x1D3F0, symBinAddr: 0x100021074, symSize: 0x54 }
  - { offset: 0x14CC8, size: 0x8, addend: 0x0, symName: __ZNSt3__112basic_stringIcNS_11char_traitsIcEENS_9allocatorIcEEE18__get_long_pointerB8ne180100Ev, symObjAddr: 0x1D444, symBinAddr: 0x1000210C8, symSize: 0x6C }
  - { offset: 0x14CEE, size: 0x8, addend: 0x0, symName: __ZNSt3__112basic_stringIcNS_11char_traitsIcEENS_9allocatorIcEEE19__get_short_pointerB8ne180100Ev, symObjAddr: 0x1D4B0, symBinAddr: 0x100021134, symSize: 0x28 }
  - { offset: 0x14D14, size: 0x8, addend: 0x0, symName: __ZNSt3__114pointer_traitsIPcE10pointer_toB8ne180100ERc, symObjAddr: 0x1D4D8, symBinAddr: 0x10002115C, symSize: 0x14 }
  - { offset: 0x14D37, size: 0x8, addend: 0x0, symName: __ZNSt3__119ostreambuf_iteratorIcNS_11char_traitsIcEEEC2B8ne180100ERNS_13basic_ostreamIcS2_EE, symObjAddr: 0x1D4EC, symBinAddr: 0x100021170, symSize: 0x10C }
  - { offset: 0x14D6F, size: 0x8, addend: 0x0, symName: __ZNKSt3__19basic_iosIcNS_11char_traitsIcEEE5rdbufB8ne180100Ev, symObjAddr: 0x1D5F8, symBinAddr: 0x10002127C, symSize: 0x24 }
  - { offset: 0x14D97, size: 0x8, addend: 0x0, symName: __ZNKSt3__18ios_base5rdbufB8ne180100Ev, symObjAddr: 0x1D61C, symBinAddr: 0x1000212A0, symSize: 0x64 }
  - { offset: 0x14DBD, size: 0x8, addend: 0x0, symName: __ZNSt3__111char_traitsIcE11eq_int_typeB8ne180100Eii, symObjAddr: 0x1D680, symBinAddr: 0x100021304, symSize: 0x28 }
  - { offset: 0x14DF0, size: 0x8, addend: 0x0, symName: __ZNSt3__111char_traitsIcE3eofB8ne180100Ev, symObjAddr: 0x1D6A8, symBinAddr: 0x10002132C, symSize: 0x8 }
  - { offset: 0x14E04, size: 0x8, addend: 0x0, symName: __ZNKSt3__19basic_iosIcNS_11char_traitsIcEEE5widenB8ne180100Ec, symObjAddr: 0x1D6B0, symBinAddr: 0x100021334, symSize: 0x2BC }
  - { offset: 0x14E7F, size: 0x8, addend: 0x0, symName: __ZNKSt3__15ctypeIcE5widenB8ne180100Ec, symObjAddr: 0x1D998, symBinAddr: 0x10002161C, symSize: 0xBC }
  - { offset: 0x14EB4, size: 0x8, addend: 0x0, symName: __ZNSt3__18ios_base8setstateB8ne180100Ej, symObjAddr: 0x1DA54, symBinAddr: 0x1000216D8, symSize: 0x9C }
  - { offset: 0x174A5, size: 0x8, addend: 0x0, symName: _.str, symObjAddr: 0x7D00, symBinAddr: 0x100072E80, symSize: 0x0 }
  - { offset: 0x174D5, size: 0x8, addend: 0x0, symName: _.str.1, symObjAddr: 0x7D20, symBinAddr: 0x100072EA0, symSize: 0x0 }
  - { offset: 0x174E6, size: 0x8, addend: 0x0, symName: _.str.2, symObjAddr: 0x7D40, symBinAddr: 0x100072EC0, symSize: 0x0 }
  - { offset: 0x17503, size: 0x8, addend: 0x0, symName: _.str.3, symObjAddr: 0x7D60, symBinAddr: 0x100072EE0, symSize: 0x0 }
  - { offset: 0x17520, size: 0x8, addend: 0x0, symName: _.str.4, symObjAddr: 0x7D80, symBinAddr: 0x100072F00, symSize: 0x0 }
  - { offset: 0x17531, size: 0x8, addend: 0x0, symName: _.str.5, symObjAddr: 0x7DA0, symBinAddr: 0x100072F20, symSize: 0x0 }
  - { offset: 0x17542, size: 0x8, addend: 0x0, symName: _.str.6, symObjAddr: 0x7DC0, symBinAddr: 0x100072F40, symSize: 0x0 }
  - { offset: 0x1755F, size: 0x8, addend: 0x0, symName: _.str.7, symObjAddr: 0x7DE0, symBinAddr: 0x100072F60, symSize: 0x0 }
  - { offset: 0x17570, size: 0x8, addend: 0x0, symName: _.str.8, symObjAddr: 0x7E00, symBinAddr: 0x100072F80, symSize: 0x0 }
  - { offset: 0x1A9F5, size: 0x8, addend: 0x0, symName: __ZNSt3__1lsB8ne180100IcNS_11char_traitsIcEEEERNS_13basic_ostreamIT_T0_EES7_RKNS_8__iom_t5E, symObjAddr: 0x590, symBinAddr: 0x100021D0C, symSize: 0x120 }
  - { offset: 0x1AA41, size: 0x8, addend: 0x0, symName: __ZNSt3__15fixedB8ne180100ERNS_8ios_baseE, symObjAddr: 0x770, symBinAddr: 0x100021EEC, symSize: 0x30 }
  - { offset: 0x1AA6F, size: 0x8, addend: 0x0, symName: __ZNSt3__112setprecisionB8ne180100Ei, symObjAddr: 0x7A0, symBinAddr: 0x100021F1C, symSize: 0x218 }
  - { offset: 0x1AAA1, size: 0x8, addend: 0x0, symName: __ZNSt3__16__math4sqrtB8ne180100Ef, symObjAddr: 0x146C, symBinAddr: 0x100022BE8, symSize: 0x18 }
  - { offset: 0x1C24E, size: 0x8, addend: 0x0, symName: __ZlsRNSt3__113basic_ostreamIcNS_11char_traitsIcEEEERK5Point, symObjAddr: 0x0, symBinAddr: 0x1000217C4, symSize: 0x548 }
  - { offset: 0x1C28B, size: 0x8, addend: 0x0, symName: __ZNSt3__113basic_ostreamIcNS_11char_traitsIcEEElsB8ne180100EPFRNS_8ios_baseES5_E, symObjAddr: 0x6B0, symBinAddr: 0x100021E2C, symSize: 0xC0 }
  - { offset: 0x1C64B, size: 0x8, addend: 0x0, symName: __ZN5PointC2Efff, symObjAddr: 0x9B8, symBinAddr: 0x100022134, symSize: 0x17C }
  - { offset: 0x1C6A1, size: 0x8, addend: 0x0, symName: __ZN5PointC1Efff, symObjAddr: 0xB34, symBinAddr: 0x1000222B0, symSize: 0x44 }
  - { offset: 0x1C6F7, size: 0x8, addend: 0x0, symName: __ZN5PointC2ERKS_, symObjAddr: 0xB78, symBinAddr: 0x1000222F4, symSize: 0x2B0 }
  - { offset: 0x1C731, size: 0x8, addend: 0x0, symName: __ZN5PointC1ERKS_, symObjAddr: 0xE28, symBinAddr: 0x1000225A4, symSize: 0x34 }
  - { offset: 0x1C76B, size: 0x8, addend: 0x0, symName: __ZN5Point4setXEf, symObjAddr: 0xE5C, symBinAddr: 0x1000225D8, symSize: 0x98 }
  - { offset: 0x1C7A1, size: 0x8, addend: 0x0, symName: __ZNK5Point4getXEv, symObjAddr: 0xEF4, symBinAddr: 0x100022670, symSize: 0x88 }
  - { offset: 0x1C7C9, size: 0x8, addend: 0x0, symName: __ZN5Point4setYEf, symObjAddr: 0xF7C, symBinAddr: 0x1000226F8, symSize: 0x9C }
  - { offset: 0x1C7FF, size: 0x8, addend: 0x0, symName: __ZNK5Point4getYEv, symObjAddr: 0x1018, symBinAddr: 0x100022794, symSize: 0x8C }
  - { offset: 0x1C827, size: 0x8, addend: 0x0, symName: __ZN5Point4setZEf, symObjAddr: 0x10A4, symBinAddr: 0x100022820, symSize: 0x9C }
  - { offset: 0x1C85D, size: 0x8, addend: 0x0, symName: __ZNK5Point4getZEv, symObjAddr: 0x1140, symBinAddr: 0x1000228BC, symSize: 0x8C }
  - { offset: 0x1C885, size: 0x8, addend: 0x0, symName: __ZNK5Point6radiusEv, symObjAddr: 0x11CC, symBinAddr: 0x100022948, symSize: 0x2A0 }
  - { offset: 0x1C8AD, size: 0x8, addend: 0x0, symName: __ZN5PointcvfEv, symObjAddr: 0x1484, symBinAddr: 0x100022C00, symSize: 0x24 }
  - { offset: 0x1C8D5, size: 0x8, addend: 0x0, symName: __ZNK5PointeqES_, symObjAddr: 0x14A8, symBinAddr: 0x100022C24, symSize: 0x320 }
  - { offset: 0x1C90B, size: 0x8, addend: 0x0, symName: __Z3absB8ne180100f, symObjAddr: 0x17C8, symBinAddr: 0x100022F44, symSize: 0x18 }
  - { offset: 0x1C938, size: 0x8, addend: 0x0, symName: __ZN5Point9pointEQ_XERS_S0_, symObjAddr: 0x17E0, symBinAddr: 0x100022F5C, symSize: 0x11C }
  - { offset: 0x1C96B, size: 0x8, addend: 0x0, symName: __ZN5Point9pointEQ_YERS_S0_, symObjAddr: 0x18FC, symBinAddr: 0x100023078, symSize: 0x124 }
  - { offset: 0x1C99E, size: 0x8, addend: 0x0, symName: __ZN5Point9pointEQ_ZERS_S0_, symObjAddr: 0x1A20, symBinAddr: 0x10002319C, symSize: 0x124 }
  - { offset: 0x1C9D1, size: 0x8, addend: 0x0, symName: __ZN5Point14pointEQ_RadiusERS_S0_, symObjAddr: 0x1B44, symBinAddr: 0x1000232C0, symSize: 0x5C }
  - { offset: 0x1CA04, size: 0x8, addend: 0x0, symName: __ZN5Point7pointEQERS_S0_, symObjAddr: 0x1BA0, symBinAddr: 0x10002331C, symSize: 0x74 }
  - { offset: 0x1CA37, size: 0x8, addend: 0x0, symName: __ZN5Point9pointEQ_XERPS_S1_, symObjAddr: 0x1C14, symBinAddr: 0x100023390, symSize: 0xB4 }
  - { offset: 0x1CA6A, size: 0x8, addend: 0x0, symName: __ZN5Point9pointEQ_YERPS_S1_, symObjAddr: 0x1CC8, symBinAddr: 0x100023444, symSize: 0xB4 }
  - { offset: 0x1CA9D, size: 0x8, addend: 0x0, symName: __ZN5Point9pointEQ_ZERPS_S1_, symObjAddr: 0x1D7C, symBinAddr: 0x1000234F8, symSize: 0xB4 }
  - { offset: 0x1CAD0, size: 0x8, addend: 0x0, symName: __ZN5Point14pointEQ_RadiusERPS_S1_, symObjAddr: 0x1E30, symBinAddr: 0x1000235AC, symSize: 0xB4 }
  - { offset: 0x1CB03, size: 0x8, addend: 0x0, symName: __ZN5Point7pointEQERPS_S1_, symObjAddr: 0x1EE4, symBinAddr: 0x100023660, symSize: 0xB4 }
  - { offset: 0x1CB36, size: 0x8, addend: 0x0, symName: __ZN5Point11point2str_XERS_, symObjAddr: 0x1F98, symBinAddr: 0x100023714, symSize: 0x440 }
  - { offset: 0x1CC46, size: 0x8, addend: 0x0, symName: __ZNSt3__118basic_stringstreamIcNS_11char_traitsIcEENS_9allocatorIcEEEC1B8ne180100Ev, symObjAddr: 0x23D8, symBinAddr: 0x100023B54, symSize: 0x250 }
  - { offset: 0x1CC70, size: 0x8, addend: 0x0, symName: __ZNKSt3__118basic_stringstreamIcNS_11char_traitsIcEENS_9allocatorIcEEE3strB8ne180100Ev, symObjAddr: 0x2628, symBinAddr: 0x100023DA4, symSize: 0x30 }
  - { offset: 0x1CC9B, size: 0x8, addend: 0x0, symName: __ZNSt3__118basic_stringstreamIcNS_11char_traitsIcEENS_9allocatorIcEEED1Ev, symObjAddr: 0x2658, symBinAddr: 0x100023DD4, symSize: 0x40 }
  - { offset: 0x1CCC8, size: 0x8, addend: 0x0, symName: __ZN5Point11point2str_YERS_, symObjAddr: 0x2698, symBinAddr: 0x100023E14, symSize: 0x444 }
  - { offset: 0x1CD00, size: 0x8, addend: 0x0, symName: __ZN5Point11point2str_ZERS_, symObjAddr: 0x2ADC, symBinAddr: 0x100024258, symSize: 0x444 }
  - { offset: 0x1CD38, size: 0x8, addend: 0x0, symName: __ZN5Point16point2str_RadiusERS_, symObjAddr: 0x2F20, symBinAddr: 0x10002469C, symSize: 0x3E0 }
  - { offset: 0x1CD70, size: 0x8, addend: 0x0, symName: __ZN5Point9point2strERS_, symObjAddr: 0x3300, symBinAddr: 0x100024A7C, symSize: 0x580 }
  - { offset: 0x1CDA8, size: 0x8, addend: 0x0, symName: __ZN5Point11point2str_XERPS_, symObjAddr: 0x3880, symBinAddr: 0x100024FFC, symSize: 0x74 }
  - { offset: 0x1CDCD, size: 0x8, addend: 0x0, symName: __ZN5Point11point2str_YERPS_, symObjAddr: 0x38F4, symBinAddr: 0x100025070, symSize: 0x74 }
  - { offset: 0x1CDF2, size: 0x8, addend: 0x0, symName: __ZN5Point11point2str_ZERPS_, symObjAddr: 0x3968, symBinAddr: 0x1000250E4, symSize: 0x74 }
  - { offset: 0x1CE17, size: 0x8, addend: 0x0, symName: __ZN5Point16point2str_RadiusERPS_, symObjAddr: 0x39DC, symBinAddr: 0x100025158, symSize: 0x74 }
  - { offset: 0x1CE3C, size: 0x8, addend: 0x0, symName: __ZN5Point9point2strERPS_, symObjAddr: 0x3A50, symBinAddr: 0x1000251CC, symSize: 0x74 }
  - { offset: 0x1CE61, size: 0x8, addend: 0x0, symName: __ZN5Point11pointRemoveEPS_, symObjAddr: 0x3AC4, symBinAddr: 0x100025240, symSize: 0x40 }
  - { offset: 0x1CE86, size: 0x8, addend: 0x0, symName: __ZN5Point9genPointsEiffbi, symObjAddr: 0x3B04, symBinAddr: 0x100025280, symSize: 0xDC }
  - { offset: 0x1CEF1, size: 0x8, addend: 0x0, symName: __ZN5Point7printlnEPS_i, symObjAddr: 0x3BE0, symBinAddr: 0x10002535C, symSize: 0x5A4 }
  - { offset: 0x1CF4D, size: 0x8, addend: 0x0, symName: __ZNSt3__18ios_base4setfB8ne180100Ejj, symObjAddr: 0x42D0, symBinAddr: 0x100025900, symSize: 0x128 }
  - { offset: 0x1CFA2, size: 0x8, addend: 0x0, symName: __ZNSt3__18ios_base6unsetfB8ne180100Ej, symObjAddr: 0x43F8, symBinAddr: 0x100025A28, symSize: 0xA4 }
  - { offset: 0x1CFD9, size: 0x8, addend: 0x0, symName: __ZNSt3__18__iom_t5C1B8ne180100Ei, symObjAddr: 0x449C, symBinAddr: 0x100025ACC, symSize: 0x34 }
  - { offset: 0x1D011, size: 0x8, addend: 0x0, symName: __ZNSt3__18__iom_t5C2B8ne180100Ei, symObjAddr: 0x44D0, symBinAddr: 0x100025B00, symSize: 0x98 }
  - { offset: 0x1D049, size: 0x8, addend: 0x0, symName: __ZNSt3__118basic_stringstreamIcNS_11char_traitsIcEENS_9allocatorIcEEED2Ev, symObjAddr: 0x4568, symBinAddr: 0x100025B98, symSize: 0x214 }
  - { offset: 0x1D083, size: 0x8, addend: 0x0, symName: __ZThn16_NSt3__118basic_stringstreamIcNS_11char_traitsIcEENS_9allocatorIcEEED1Ev, symObjAddr: 0x477C, symBinAddr: 0x100025DAC, symSize: 0x1C }
  - { offset: 0x1D09A, size: 0x8, addend: 0x0, symName: __ZTv0_n24_NSt3__118basic_stringstreamIcNS_11char_traitsIcEENS_9allocatorIcEEED1Ev, symObjAddr: 0x4798, symBinAddr: 0x100025DC8, symSize: 0xB0 }
  - { offset: 0x1D0B6, size: 0x8, addend: 0x0, symName: __ZNSt3__115basic_stringbufIcNS_11char_traitsIcEENS_9allocatorIcEEED1Ev, symObjAddr: 0x4848, symBinAddr: 0x100025E78, symSize: 0x2C }
  - { offset: 0x1D0E3, size: 0x8, addend: 0x0, symName: __ZNSt3__115basic_stringbufIcNS_11char_traitsIcEENS_9allocatorIcEEED2Ev, symObjAddr: 0x4874, symBinAddr: 0x100025EA4, symSize: 0x80 }
  - { offset: 0x1D134, size: 0x8, addend: 0x0, symName: __ZNSt3__18ios_base9precisionB8ne180100El, symObjAddr: 0x6A48, symBinAddr: 0x100025F24, symSize: 0xB8 }
  - { offset: 0x1D17A, size: 0x8, addend: 0x0, symName: __ZNSt3__19basic_iosIcNS_11char_traitsIcEEEC2B8ne180100Ev, symObjAddr: 0x6B00, symBinAddr: 0x100025FDC, symSize: 0x7C }
  - { offset: 0x1D1A4, size: 0x8, addend: 0x0, symName: __ZNSt3__114basic_iostreamIcNS_11char_traitsIcEEEC2B8ne180100EPNS_15basic_streambufIcS2_EE, symObjAddr: 0x6B7C, symBinAddr: 0x100026058, symSize: 0x254 }
  - { offset: 0x1D1EA, size: 0x8, addend: 0x0, symName: __ZNSt3__115basic_stringbufIcNS_11char_traitsIcEENS_9allocatorIcEEEC1B8ne180100Ej, symObjAddr: 0x6DD0, symBinAddr: 0x1000262AC, symSize: 0x34 }
  - { offset: 0x1D223, size: 0x8, addend: 0x0, symName: __ZNSt3__18ios_baseC2B8ne180100Ev, symObjAddr: 0x6E04, symBinAddr: 0x1000262E0, symSize: 0x6C }
  - { offset: 0x1D24D, size: 0x8, addend: 0x0, symName: __ZNSt3__113basic_istreamIcNS_11char_traitsIcEEEC2B8ne180100EPNS_15basic_streambufIcS2_EE, symObjAddr: 0x6E70, symBinAddr: 0x10002634C, symSize: 0x20C }
  - { offset: 0x1D292, size: 0x8, addend: 0x0, symName: __ZNSt3__113basic_ostreamIcNS_11char_traitsIcEEEC2B8ne180100Ev, symObjAddr: 0x707C, symBinAddr: 0x100026558, symSize: 0x17C }
  - { offset: 0x1D2C9, size: 0x8, addend: 0x0, symName: __ZNSt3__19basic_iosIcNS_11char_traitsIcEEE4initB8ne180100EPNS_15basic_streambufIcS2_EE, symObjAddr: 0x71F8, symBinAddr: 0x1000266D4, symSize: 0xEC }
  - { offset: 0x1D300, size: 0x8, addend: 0x0, symName: __ZNSt3__115basic_stringbufIcNS_11char_traitsIcEENS_9allocatorIcEEEC2B8ne180100Ej, symObjAddr: 0x72E4, symBinAddr: 0x1000267C0, symSize: 0x130 }
  - { offset: 0x1D339, size: 0x8, addend: 0x0, symName: __ZNSt3__112basic_stringIcNS_11char_traitsIcEENS_9allocatorIcEEEC1B8ne180100Ev, symObjAddr: 0x7414, symBinAddr: 0x1000268F0, symSize: 0x2C }
  - { offset: 0x1D363, size: 0x8, addend: 0x0, symName: __ZNSt3__112basic_stringIcNS_11char_traitsIcEENS_9allocatorIcEEEC2B8ne180100Ev, symObjAddr: 0x7440, symBinAddr: 0x10002691C, symSize: 0x244 }
  - { offset: 0x1D394, size: 0x8, addend: 0x0, symName: __ZNSt3__117__compressed_pairINS_12basic_stringIcNS_11char_traitsIcEENS_9allocatorIcEEE5__repES5_EC1B8ne180100INS_16__value_init_tagENS_18__default_init_tagEEEOT_OT0_, symObjAddr: 0x7684, symBinAddr: 0x100026B60, symSize: 0x3C }
  - { offset: 0x1D3EC, size: 0x8, addend: 0x0, symName: __ZNSt3__117__compressed_pairINS_12basic_stringIcNS_11char_traitsIcEENS_9allocatorIcEEE5__repES5_EC2B8ne180100INS_16__value_init_tagENS_18__default_init_tagEEEOT_OT0_, symObjAddr: 0x76D4, symBinAddr: 0x100026B9C, symSize: 0x3C }
  - { offset: 0x1D444, size: 0x8, addend: 0x0, symName: __ZNSt3__122__compressed_pair_elemINS_12basic_stringIcNS_11char_traitsIcEENS_9allocatorIcEEE5__repELi0ELb0EEC2B8ne180100ENS_16__value_init_tagE, symObjAddr: 0x7710, symBinAddr: 0x100026BD8, symSize: 0x34 }
  - { offset: 0x1F381, size: 0x8, addend: 0x0, symName: __ZN11T_ArrayList5TESTSE, symObjAddr: 0x6F320, symBinAddr: 0x100092200, symSize: 0x0 }
  - { offset: 0x23B56, size: 0x8, addend: 0x0, symName: __ZNSt3__1plB8ne180100IcNS_11char_traitsIcEENS_9allocatorIcEEEENS_12basic_stringIT_T0_T1_EEOS9_SA_, symObjAddr: 0xA68, symBinAddr: 0x100027690, symSize: 0x40 }
  - { offset: 0x23BAE, size: 0x8, addend: 0x0, symName: __ZNSt3__1plB8ne180100IcNS_11char_traitsIcEENS_9allocatorIcEEEENS_12basic_stringIT_T0_T1_EEPKS6_OS9_, symObjAddr: 0x4F44, symBinAddr: 0x10002BB2C, symSize: 0x44 }
  - { offset: 0x244B6, size: 0x8, addend: 0x0, symName: __ZNSt3__1eqB8ne180100INS_9allocatorIcEEEEbRKNS_12basic_stringIcNS_11char_traitsIcEET_EES9_, symObjAddr: 0x1997C, symBinAddr: 0x10004024C, symSize: 0x230 }
  - { offset: 0x254FC, size: 0x8, addend: 0x0, symName: _.str, symObjAddr: 0x25460, symBinAddr: 0x100072FA0, symSize: 0x0 }
  - { offset: 0x25519, size: 0x8, addend: 0x0, symName: _.str.1, symObjAddr: 0x25480, symBinAddr: 0x100072FC0, symSize: 0x0 }
  - { offset: 0x25536, size: 0x8, addend: 0x0, symName: _.str.2, symObjAddr: 0x254C0, symBinAddr: 0x100073000, symSize: 0x0 }
  - { offset: 0x25547, size: 0x8, addend: 0x0, symName: _.str.3, symObjAddr: 0x254E0, symBinAddr: 0x100073020, symSize: 0x0 }
  - { offset: 0x25564, size: 0x8, addend: 0x0, symName: _.str.4, symObjAddr: 0x25500, symBinAddr: 0x100073040, symSize: 0x0 }
  - { offset: 0x25575, size: 0x8, addend: 0x0, symName: _.str.5, symObjAddr: 0x25520, symBinAddr: 0x100073060, symSize: 0x0 }
  - { offset: 0x25592, size: 0x8, addend: 0x0, symName: _.str.6, symObjAddr: 0x25560, symBinAddr: 0x1000730A0, symSize: 0x0 }
  - { offset: 0x255A3, size: 0x8, addend: 0x0, symName: _.str.7, symObjAddr: 0x25580, symBinAddr: 0x1000730C0, symSize: 0x0 }
  - { offset: 0x255C0, size: 0x8, addend: 0x0, symName: _.str.8, symObjAddr: 0x255E0, symBinAddr: 0x100073120, symSize: 0x0 }
  - { offset: 0x255D1, size: 0x8, addend: 0x0, symName: _.str.9, symObjAddr: 0x25600, symBinAddr: 0x100073140, symSize: 0x0 }
  - { offset: 0x255EE, size: 0x8, addend: 0x0, symName: _.str.10, symObjAddr: 0x25640, symBinAddr: 0x100073180, symSize: 0x0 }
  - { offset: 0x255FF, size: 0x8, addend: 0x0, symName: _.str.11, symObjAddr: 0x25660, symBinAddr: 0x1000731A0, symSize: 0x0 }
  - { offset: 0x2561C, size: 0x8, addend: 0x0, symName: _.str.12, symObjAddr: 0x256C0, symBinAddr: 0x100073200, symSize: 0x0 }
  - { offset: 0x2562D, size: 0x8, addend: 0x0, symName: _.str.13, symObjAddr: 0x256E0, symBinAddr: 0x100073220, symSize: 0x0 }
  - { offset: 0x2564A, size: 0x8, addend: 0x0, symName: _.str.14, symObjAddr: 0x26500, symBinAddr: 0x100071B80, symSize: 0x0 }
  - { offset: 0x25667, size: 0x8, addend: 0x0, symName: _.str.15, symObjAddr: 0x25740, symBinAddr: 0x100073280, symSize: 0x0 }
  - { offset: 0x25684, size: 0x8, addend: 0x0, symName: _.str.16, symObjAddr: 0x25780, symBinAddr: 0x1000732C0, symSize: 0x0 }
  - { offset: 0x25695, size: 0x8, addend: 0x0, symName: _.str.17, symObjAddr: 0x257A0, symBinAddr: 0x1000732E0, symSize: 0x0 }
  - { offset: 0x256A6, size: 0x8, addend: 0x0, symName: _.str.18, symObjAddr: 0x257C0, symBinAddr: 0x100073300, symSize: 0x0 }
  - { offset: 0x256B7, size: 0x8, addend: 0x0, symName: _.str.19, symObjAddr: 0x257E0, symBinAddr: 0x100073320, symSize: 0x0 }
  - { offset: 0x256C8, size: 0x8, addend: 0x0, symName: _.str.20, symObjAddr: 0x25800, symBinAddr: 0x100073340, symSize: 0x0 }
  - { offset: 0x256D9, size: 0x8, addend: 0x0, symName: _.str.21, symObjAddr: 0x25820, symBinAddr: 0x100073360, symSize: 0x0 }
  - { offset: 0x256F6, size: 0x8, addend: 0x0, symName: _.str.22, symObjAddr: 0x25860, symBinAddr: 0x1000733A0, symSize: 0x0 }
  - { offset: 0x25707, size: 0x8, addend: 0x0, symName: _.str.23, symObjAddr: 0x25880, symBinAddr: 0x1000733C0, symSize: 0x0 }
  - { offset: 0x25719, size: 0x8, addend: 0x0, symName: _.str.24, symObjAddr: 0x258A0, symBinAddr: 0x1000733E0, symSize: 0x0 }
  - { offset: 0x2572B, size: 0x8, addend: 0x0, symName: _.str.25, symObjAddr: 0x258C0, symBinAddr: 0x100073400, symSize: 0x0 }
  - { offset: 0x25749, size: 0x8, addend: 0x0, symName: _.str.26, symObjAddr: 0x25900, symBinAddr: 0x100073440, symSize: 0x0 }
  - { offset: 0x25767, size: 0x8, addend: 0x0, symName: _.str.27, symObjAddr: 0x25920, symBinAddr: 0x100073460, symSize: 0x0 }
  - { offset: 0x25785, size: 0x8, addend: 0x0, symName: _.str.28, symObjAddr: 0x25940, symBinAddr: 0x100073480, symSize: 0x0 }
  - { offset: 0x25797, size: 0x8, addend: 0x0, symName: _.str.29, symObjAddr: 0x25960, symBinAddr: 0x1000734A0, symSize: 0x0 }
  - { offset: 0x257A9, size: 0x8, addend: 0x0, symName: _.str.30, symObjAddr: 0x259A0, symBinAddr: 0x1000734E0, symSize: 0x0 }
  - { offset: 0x257BB, size: 0x8, addend: 0x0, symName: _.str.31, symObjAddr: 0x259C0, symBinAddr: 0x100073500, symSize: 0x0 }
  - { offset: 0x257D9, size: 0x8, addend: 0x0, symName: _.str.32, symObjAddr: 0x25A20, symBinAddr: 0x100073560, symSize: 0x0 }
  - { offset: 0x257EB, size: 0x8, addend: 0x0, symName: _.str.33, symObjAddr: 0x25A40, symBinAddr: 0x100073580, symSize: 0x0 }
  - { offset: 0x257FD, size: 0x8, addend: 0x0, symName: _.str.34, symObjAddr: 0x25A60, symBinAddr: 0x1000735A0, symSize: 0x0 }
  - { offset: 0x2581B, size: 0x8, addend: 0x0, symName: _.str.35, symObjAddr: 0x25AC0, symBinAddr: 0x100073600, symSize: 0x0 }
  - { offset: 0x2582D, size: 0x8, addend: 0x0, symName: _.str.36, symObjAddr: 0x25AE0, symBinAddr: 0x100073620, symSize: 0x0 }
  - { offset: 0x2583F, size: 0x8, addend: 0x0, symName: _.str.37, symObjAddr: 0x25B20, symBinAddr: 0x100073660, symSize: 0x0 }
  - { offset: 0x25851, size: 0x8, addend: 0x0, symName: _.str.38, symObjAddr: 0x25B40, symBinAddr: 0x100073680, symSize: 0x0 }
  - { offset: 0x25863, size: 0x8, addend: 0x0, symName: _.str.39, symObjAddr: 0x25B60, symBinAddr: 0x1000736A0, symSize: 0x0 }
  - { offset: 0x25875, size: 0x8, addend: 0x0, symName: _.str.40, symObjAddr: 0x25B80, symBinAddr: 0x1000736C0, symSize: 0x0 }
  - { offset: 0x25893, size: 0x8, addend: 0x0, symName: _.str.41, symObjAddr: 0x25BE0, symBinAddr: 0x100073720, symSize: 0x0 }
  - { offset: 0x258B1, size: 0x8, addend: 0x0, symName: _.str.42, symObjAddr: 0x25C00, symBinAddr: 0x100073740, symSize: 0x0 }
  - { offset: 0x258C3, size: 0x8, addend: 0x0, symName: _.str.43, symObjAddr: 0x25C20, symBinAddr: 0x100073760, symSize: 0x0 }
  - { offset: 0x258D5, size: 0x8, addend: 0x0, symName: _.str.44, symObjAddr: 0x25C60, symBinAddr: 0x1000737A0, symSize: 0x0 }
  - { offset: 0x258E7, size: 0x8, addend: 0x0, symName: _.str.45, symObjAddr: 0x25CA0, symBinAddr: 0x1000737E0, symSize: 0x0 }
  - { offset: 0x258F9, size: 0x8, addend: 0x0, symName: _.str.46, symObjAddr: 0x25CC0, symBinAddr: 0x100073800, symSize: 0x0 }
  - { offset: 0x2590B, size: 0x8, addend: 0x0, symName: _.str.47, symObjAddr: 0x25D00, symBinAddr: 0x100073840, symSize: 0x0 }
  - { offset: 0x2591D, size: 0x8, addend: 0x0, symName: _.str.48, symObjAddr: 0x25D20, symBinAddr: 0x100073860, symSize: 0x0 }
  - { offset: 0x2592F, size: 0x8, addend: 0x0, symName: _.str.49, symObjAddr: 0x25D60, symBinAddr: 0x1000738A0, symSize: 0x0 }
  - { offset: 0x25941, size: 0x8, addend: 0x0, symName: _.str.50, symObjAddr: 0x25DA0, symBinAddr: 0x1000738E0, symSize: 0x0 }
  - { offset: 0x25953, size: 0x8, addend: 0x0, symName: _.str.51, symObjAddr: 0x25DC0, symBinAddr: 0x100073900, symSize: 0x0 }
  - { offset: 0x25971, size: 0x8, addend: 0x0, symName: _.str.52, symObjAddr: 0x25DE0, symBinAddr: 0x100073920, symSize: 0x0 }
  - { offset: 0x25983, size: 0x8, addend: 0x0, symName: _.str.53, symObjAddr: 0x25E00, symBinAddr: 0x100073940, symSize: 0x0 }
  - { offset: 0x259A1, size: 0x8, addend: 0x0, symName: _.str.54, symObjAddr: 0x25E40, symBinAddr: 0x100073980, symSize: 0x0 }
  - { offset: 0x259B3, size: 0x8, addend: 0x0, symName: _.str.55, symObjAddr: 0x25E60, symBinAddr: 0x1000739A0, symSize: 0x0 }
  - { offset: 0x259C5, size: 0x8, addend: 0x0, symName: _.str.56, symObjAddr: 0x25EA0, symBinAddr: 0x1000739E0, symSize: 0x0 }
  - { offset: 0x259D7, size: 0x8, addend: 0x0, symName: _.str.57, symObjAddr: 0x25EC0, symBinAddr: 0x100073A00, symSize: 0x0 }
  - { offset: 0x259F5, size: 0x8, addend: 0x0, symName: _.str.58, symObjAddr: 0x25F20, symBinAddr: 0x100073A60, symSize: 0x0 }
  - { offset: 0x25A07, size: 0x8, addend: 0x0, symName: _.str.59, symObjAddr: 0x25F40, symBinAddr: 0x100073A80, symSize: 0x0 }
  - { offset: 0x25A19, size: 0x8, addend: 0x0, symName: _.str.60, symObjAddr: 0x25F60, symBinAddr: 0x100073AA0, symSize: 0x0 }
  - { offset: 0x25A2B, size: 0x8, addend: 0x0, symName: _.str.61, symObjAddr: 0x25F80, symBinAddr: 0x100073AC0, symSize: 0x0 }
  - { offset: 0x25A3D, size: 0x8, addend: 0x0, symName: _.str.62, symObjAddr: 0x25FA0, symBinAddr: 0x100073AE0, symSize: 0x0 }
  - { offset: 0x25A5B, size: 0x8, addend: 0x0, symName: _.str.63, symObjAddr: 0x26000, symBinAddr: 0x100073B40, symSize: 0x0 }
  - { offset: 0x25A6D, size: 0x8, addend: 0x0, symName: _.str.64, symObjAddr: 0x26020, symBinAddr: 0x100073B60, symSize: 0x0 }
  - { offset: 0x25A8B, size: 0x8, addend: 0x0, symName: _.str.65, symObjAddr: 0x26040, symBinAddr: 0x100073B80, symSize: 0x0 }
  - { offset: 0x25A9D, size: 0x8, addend: 0x0, symName: _.str.66, symObjAddr: 0x26060, symBinAddr: 0x100073BA0, symSize: 0x0 }
  - { offset: 0x25ABB, size: 0x8, addend: 0x0, symName: _.str.67, symObjAddr: 0x26080, symBinAddr: 0x100073BC0, symSize: 0x0 }
  - { offset: 0x25ACD, size: 0x8, addend: 0x0, symName: _.str.68, symObjAddr: 0x260A0, symBinAddr: 0x100073BE0, symSize: 0x0 }
  - { offset: 0x25AEB, size: 0x8, addend: 0x0, symName: _.str.69, symObjAddr: 0x26100, symBinAddr: 0x100073C40, symSize: 0x0 }
  - { offset: 0x25AFD, size: 0x8, addend: 0x0, symName: _.str.70, symObjAddr: 0x26120, symBinAddr: 0x100073C60, symSize: 0x0 }
  - { offset: 0x25B0F, size: 0x8, addend: 0x0, symName: _.str.71, symObjAddr: 0x26140, symBinAddr: 0x100073C80, symSize: 0x0 }
  - { offset: 0x25B21, size: 0x8, addend: 0x0, symName: _.str.72, symObjAddr: 0x26160, symBinAddr: 0x100073CA0, symSize: 0x0 }
  - { offset: 0x25B33, size: 0x8, addend: 0x0, symName: _.str.73, symObjAddr: 0x26180, symBinAddr: 0x100073CC0, symSize: 0x0 }
  - { offset: 0x25B51, size: 0x8, addend: 0x0, symName: _.str.74, symObjAddr: 0x261C0, symBinAddr: 0x100073D00, symSize: 0x0 }
  - { offset: 0x25B63, size: 0x8, addend: 0x0, symName: _.str.75, symObjAddr: 0x261E0, symBinAddr: 0x100073D20, symSize: 0x0 }
  - { offset: 0x25B81, size: 0x8, addend: 0x0, symName: _.str.76, symObjAddr: 0x26300, symBinAddr: 0x100073E40, symSize: 0x0 }
  - { offset: 0x25B92, size: 0x8, addend: 0x0, symName: _.str.77, symObjAddr: 0x26320, symBinAddr: 0x100073E60, symSize: 0x0 }
  - { offset: 0x25BA3, size: 0x8, addend: 0x0, symName: _.str.78, symObjAddr: 0x26340, symBinAddr: 0x100073E80, symSize: 0x0 }
  - { offset: 0x25BB4, size: 0x8, addend: 0x0, symName: _.str.79, symObjAddr: 0x26380, symBinAddr: 0x100073EC0, symSize: 0x0 }
  - { offset: 0x25BC5, size: 0x8, addend: 0x0, symName: _.str.80, symObjAddr: 0x263A0, symBinAddr: 0x100073EE0, symSize: 0x0 }
  - { offset: 0x25BD6, size: 0x8, addend: 0x0, symName: _.str.81, symObjAddr: 0x263E0, symBinAddr: 0x100073F20, symSize: 0x0 }
  - { offset: 0x25BF3, size: 0x8, addend: 0x0, symName: _.str.82, symObjAddr: 0x26400, symBinAddr: 0x100073F40, symSize: 0x0 }
  - { offset: 0x25C05, size: 0x8, addend: 0x0, symName: _.str.83, symObjAddr: 0x26420, symBinAddr: 0x100073F60, symSize: 0x0 }
  - { offset: 0x25C23, size: 0x8, addend: 0x0, symName: _.str.84, symObjAddr: 0x26460, symBinAddr: 0x100073FA0, symSize: 0x0 }
  - { offset: 0x25C41, size: 0x8, addend: 0x0, symName: _.str.85, symObjAddr: 0x264C0, symBinAddr: 0x100074000, symSize: 0x0 }
  - { offset: 0x25D9E, size: 0x8, addend: 0x0, symName: __ZNSt3__13mapINS_12basic_stringIcNS_11char_traitsIcEENS_9allocatorIcEEEEM11T_ArrayListFbvENS_4lessIS6_EENS4_INS_4pairIKS6_S9_EEEEEC1B8ne180100Ev, symObjAddr: 0x0, symBinAddr: 0x100026C5C, symSize: 0x2C }
  - { offset: 0x25DC8, size: 0x8, addend: 0x0, symName: __ZNSt3__13mapINS_12basic_stringIcNS_11char_traitsIcEENS_9allocatorIcEEEEM11T_ArrayListFbvENS_4lessIS6_EENS4_INS_4pairIKS6_S9_EEEEED1B8ne180100Ev, symObjAddr: 0x2C, symBinAddr: 0x100026C88, symSize: 0x2C }
  - { offset: 0x25DF2, size: 0x8, addend: 0x0, symName: __ZN11T_ArrayList6array1Ev, symObjAddr: 0x58, symBinAddr: 0x100026CB4, symSize: 0x998 }
  - { offset: 0x2639E, size: 0x8, addend: 0x0, symName: __ZN10XArrayListIiEC1EPFvPS0_EPFbRiS4_Ei, symObjAddr: 0xA24, symBinAddr: 0x10002764C, symSize: 0x44 }
  - { offset: 0x263F3, size: 0x8, addend: 0x0, symName: __ZN10XArrayListIiE8toStringEPFNSt3__112basic_stringIcNS1_11char_traitsIcEENS1_9allocatorIcEEEERiE, symObjAddr: 0xAE8, symBinAddr: 0x1000276D0, symSize: 0x760 }
  - { offset: 0x26454, size: 0x8, addend: 0x0, symName: __ZN10XArrayListIiE4sizeEv, symObjAddr: 0x1248, symBinAddr: 0x100027E30, symSize: 0x8C }
  - { offset: 0x2647C, size: 0x8, addend: 0x0, symName: __ZN10XArrayListIiE5emptyEv, symObjAddr: 0x12D4, symBinAddr: 0x100027EBC, symSize: 0x98 }
  - { offset: 0x264A4, size: 0x8, addend: 0x0, symName: __ZN11T_ArrayList11printResultENSt3__112basic_stringIcNS0_11char_traitsIcEENS0_9allocatorIcEEEES6_S6_, symObjAddr: 0x136C, symBinAddr: 0x100027F54, symSize: 0x66C }
  - { offset: 0x264FB, size: 0x8, addend: 0x0, symName: __ZN10XArrayListIiED1Ev, symObjAddr: 0x19D8, symBinAddr: 0x1000285C0, symSize: 0x2C }
  - { offset: 0x26526, size: 0x8, addend: 0x0, symName: __ZN11T_ArrayList6array2Ev, symObjAddr: 0x1A04, symBinAddr: 0x1000285EC, symSize: 0x9BC }
  - { offset: 0x26599, size: 0x8, addend: 0x0, symName: __ZN10XArrayListIiE3addEi, symObjAddr: 0x23C0, symBinAddr: 0x100028FA8, symSize: 0x1BC }
  - { offset: 0x265CE, size: 0x8, addend: 0x0, symName: __ZN11T_ArrayList6array3Ev, symObjAddr: 0x257C, symBinAddr: 0x100029164, symSize: 0xA5C }
  - { offset: 0x26641, size: 0x8, addend: 0x0, symName: __ZN11T_ArrayList6array4Ev, symObjAddr: 0x2FD8, symBinAddr: 0x100029BC0, symSize: 0x8BC }
  - { offset: 0x266B4, size: 0x8, addend: 0x0, symName: __ZN10XArrayListIiE3addEii, symObjAddr: 0x3894, symBinAddr: 0x10002A47C, symSize: 0x4A4 }
  - { offset: 0x26715, size: 0x8, addend: 0x0, symName: __ZN11T_ArrayList6array5Ev, symObjAddr: 0x3D38, symBinAddr: 0x10002A920, symSize: 0x940 }
  - { offset: 0x26788, size: 0x8, addend: 0x0, symName: __ZN11T_ArrayList6array6Ev, symObjAddr: 0x4678, symBinAddr: 0x10002B260, symSize: 0x8CC }
  - { offset: 0x2680A, size: 0x8, addend: 0x0, symName: __ZNSt3__112basic_stringIcNS_11char_traitsIcEENS_9allocatorIcEEEaSB8ne180100EOS5_, symObjAddr: 0x4F88, symBinAddr: 0x10002BB70, symSize: 0x34 }
  - { offset: 0x2683F, size: 0x8, addend: 0x0, symName: __ZN11T_ArrayList6array7Ev, symObjAddr: 0x4FCC, symBinAddr: 0x10002BBA4, symSize: 0x91C }
  - { offset: 0x268C1, size: 0x8, addend: 0x0, symName: __ZN11T_ArrayList6array8Ev, symObjAddr: 0x58E8, symBinAddr: 0x10002C4C0, symSize: 0x8C8 }
  - { offset: 0x26943, size: 0x8, addend: 0x0, symName: __ZN10XArrayListIiE8removeAtEi, symObjAddr: 0x61B0, symBinAddr: 0x10002CD88, symSize: 0x354 }
  - { offset: 0x269A5, size: 0x8, addend: 0x0, symName: __ZN11T_ArrayList6array9Ev, symObjAddr: 0x6504, symBinAddr: 0x10002D0DC, symSize: 0x918 }
  - { offset: 0x26A27, size: 0x8, addend: 0x0, symName: __ZN11T_ArrayList7array10Ev, symObjAddr: 0x6E1C, symBinAddr: 0x10002D9F4, symSize: 0x9CC }
  - { offset: 0x26A9A, size: 0x8, addend: 0x0, symName: __ZN11T_ArrayList7array11Ev, symObjAddr: 0x77E8, symBinAddr: 0x10002E3C0, symSize: 0xA10 }
  - { offset: 0x26B0D, size: 0x8, addend: 0x0, symName: __ZN11T_ArrayList7array12Ev, symObjAddr: 0x81F8, symBinAddr: 0x10002EDD0, symSize: 0xB58 }
  - { offset: 0x26B85, size: 0x8, addend: 0x0, symName: __ZN10XArrayListIiE10removeItemEiPFviE, symObjAddr: 0x8D50, symBinAddr: 0x10002F928, symSize: 0x1C0 }
  - { offset: 0x26BE7, size: 0x8, addend: 0x0, symName: __ZNSt3__112basic_stringIcNS_11char_traitsIcEENS_9allocatorIcEEEpLB8ne180100ERKS5_, symObjAddr: 0x8F10, symBinAddr: 0x10002FAE8, symSize: 0x2C }
  - { offset: 0x26C1C, size: 0x8, addend: 0x0, symName: __ZN11T_ArrayList7array13Ev, symObjAddr: 0x8F3C, symBinAddr: 0x10002FB14, symSize: 0xB58 }
  - { offset: 0x26C94, size: 0x8, addend: 0x0, symName: __ZN11T_ArrayList7array14Ev, symObjAddr: 0x9A94, symBinAddr: 0x10003066C, symSize: 0xB88 }
  - { offset: 0x26D0C, size: 0x8, addend: 0x0, symName: __ZN11T_ArrayList7array15Ev, symObjAddr: 0xA61C, symBinAddr: 0x1000311F4, symSize: 0xB88 }
  - { offset: 0x26D84, size: 0x8, addend: 0x0, symName: __ZN11T_ArrayList7array16Ev, symObjAddr: 0xB1A4, symBinAddr: 0x100031D7C, symSize: 0xB88 }
  - { offset: 0x26DFC, size: 0x8, addend: 0x0, symName: __ZN11T_ArrayList7array17Ev, symObjAddr: 0xBD2C, symBinAddr: 0x100032904, symSize: 0xA30 }
  - { offset: 0x26E74, size: 0x8, addend: 0x0, symName: __ZN10XArrayListIiE5clearEv, symObjAddr: 0xC75C, symBinAddr: 0x100033334, symSize: 0x164 }
  - { offset: 0x26E9C, size: 0x8, addend: 0x0, symName: __ZN11T_ArrayList7array18Ev, symObjAddr: 0xC8C0, symBinAddr: 0x100033498, symSize: 0x8C8 }
  - { offset: 0x26F24, size: 0x8, addend: 0x0, symName: __ZN10XArrayListIiE3getEi, symObjAddr: 0xD188, symBinAddr: 0x100033D60, symSize: 0x84 }
  - { offset: 0x26F5A, size: 0x8, addend: 0x0, symName: __ZN11T_ArrayList7array19Ev, symObjAddr: 0xD20C, symBinAddr: 0x100033DE4, symSize: 0x90C }
  - { offset: 0x26FE2, size: 0x8, addend: 0x0, symName: __ZN11T_ArrayList7array20Ev, symObjAddr: 0xDB18, symBinAddr: 0x1000346F0, symSize: 0xBD0 }
  - { offset: 0x2705A, size: 0x8, addend: 0x0, symName: __ZN11T_ArrayList7array21Ev, symObjAddr: 0xE6E8, symBinAddr: 0x1000352C0, symSize: 0x7A4 }
  - { offset: 0x270E2, size: 0x8, addend: 0x0, symName: __ZN10XArrayListIiE7indexOfEi, symObjAddr: 0xEE8C, symBinAddr: 0x100035A64, symSize: 0x38C }
  - { offset: 0x2713B, size: 0x8, addend: 0x0, symName: __ZN11T_ArrayList7array22Ev, symObjAddr: 0xF218, symBinAddr: 0x100035DF0, symSize: 0x7A4 }
  - { offset: 0x271C3, size: 0x8, addend: 0x0, symName: __ZN11T_ArrayList7array23Ev, symObjAddr: 0xF9BC, symBinAddr: 0x100036594, symSize: 0x7B8 }
  - { offset: 0x2724B, size: 0x8, addend: 0x0, symName: __ZN10XArrayListIiE8containsEi, symObjAddr: 0x10174, symBinAddr: 0x100036D4C, symSize: 0xC4 }
  - { offset: 0x27281, size: 0x8, addend: 0x0, symName: __ZN11T_ArrayList7array24Ev, symObjAddr: 0x10238, symBinAddr: 0x100036E10, symSize: 0x7B8 }
  - { offset: 0x27309, size: 0x8, addend: 0x0, symName: __ZN11T_ArrayList7array25Ev, symObjAddr: 0x109F0, symBinAddr: 0x1000375C8, symSize: 0x738 }
  - { offset: 0x278BF, size: 0x8, addend: 0x0, symName: __ZN10XArrayListI5PointEC1EPFvPS1_EPFbRS0_S5_Ei, symObjAddr: 0x11128, symBinAddr: 0x100037D00, symSize: 0x44 }
  - { offset: 0x27914, size: 0x8, addend: 0x0, symName: __ZN10XArrayListI5PointE3addES0_, symObjAddr: 0x1116C, symBinAddr: 0x100037D44, symSize: 0x168 }
  - { offset: 0x2794A, size: 0x8, addend: 0x0, symName: __ZN10XArrayListI5PointE8toStringEPFNSt3__112basic_stringIcNS2_11char_traitsIcEENS2_9allocatorIcEEEERS0_E, symObjAddr: 0x112D4, symBinAddr: 0x100037EAC, symSize: 0x70C }
  - { offset: 0x279AB, size: 0x8, addend: 0x0, symName: __ZN10XArrayListI5PointED1Ev, symObjAddr: 0x119E0, symBinAddr: 0x1000385B8, symSize: 0x2C }
  - { offset: 0x279D6, size: 0x8, addend: 0x0, symName: __ZN11T_ArrayList7array26Ev, symObjAddr: 0x11A0C, symBinAddr: 0x1000385E4, symSize: 0x738 }
  - { offset: 0x27A4E, size: 0x8, addend: 0x0, symName: __ZN11T_ArrayList7array27Ev, symObjAddr: 0x12144, symBinAddr: 0x100038D1C, symSize: 0x7FC }
  - { offset: 0x27AD6, size: 0x8, addend: 0x0, symName: __ZN10XArrayListI5PointE7indexOfES0_, symObjAddr: 0x12940, symBinAddr: 0x100039518, symSize: 0x1B8 }
  - { offset: 0x27B2A, size: 0x8, addend: 0x0, symName: __ZN11T_ArrayList7array28Ev, symObjAddr: 0x12AF8, symBinAddr: 0x1000396D0, symSize: 0x7FC }
  - { offset: 0x27BB2, size: 0x8, addend: 0x0, symName: __ZN11T_ArrayList7array29Ev, symObjAddr: 0x132F4, symBinAddr: 0x100039ECC, symSize: 0x820 }
  - { offset: 0x27C3A, size: 0x8, addend: 0x0, symName: __ZN10XArrayListI5PointE8containsES0_, symObjAddr: 0x13B14, symBinAddr: 0x10003A6EC, symSize: 0x254 }
  - { offset: 0x27C73, size: 0x8, addend: 0x0, symName: __ZN11T_ArrayList7array30Ev, symObjAddr: 0x13D68, symBinAddr: 0x10003A940, symSize: 0x7B4 }
  - { offset: 0x282FD, size: 0x8, addend: 0x0, symName: __ZN10XArrayListIP5PointE4freeEPS2_, symObjAddr: 0x1451C, symBinAddr: 0x10003B0F4, symSize: 0x38C }
  - { offset: 0x28333, size: 0x8, addend: 0x0, symName: __ZN10XArrayListIP5PointEC1EPFvPS2_EPFbRS1_S6_Ei, symObjAddr: 0x148A8, symBinAddr: 0x10003B480, symSize: 0x44 }
  - { offset: 0x28388, size: 0x8, addend: 0x0, symName: __ZN10XArrayListIP5PointE3addES1_, symObjAddr: 0x148EC, symBinAddr: 0x10003B4C4, symSize: 0x194 }
  - { offset: 0x283BD, size: 0x8, addend: 0x0, symName: __ZN10XArrayListIP5PointE8toStringEPFNSt3__112basic_stringIcNS3_11char_traitsIcEENS3_9allocatorIcEEEERS1_E, symObjAddr: 0x14A80, symBinAddr: 0x10003B658, symSize: 0x738 }
  - { offset: 0x2841E, size: 0x8, addend: 0x0, symName: __ZN10XArrayListIP5PointED1Ev, symObjAddr: 0x151B8, symBinAddr: 0x10003BD90, symSize: 0x2C }
  - { offset: 0x28449, size: 0x8, addend: 0x0, symName: __ZN11T_ArrayList7array31Ev, symObjAddr: 0x151E4, symBinAddr: 0x10003BDBC, symSize: 0x7C0 }
  - { offset: 0x284C1, size: 0x8, addend: 0x0, symName: __ZN10XArrayListIP5PointE5clearEv, symObjAddr: 0x159A4, symBinAddr: 0x10003C57C, symSize: 0x164 }
  - { offset: 0x284E9, size: 0x8, addend: 0x0, symName: __ZN11T_ArrayList7array32Ev, symObjAddr: 0x15B08, symBinAddr: 0x10003C6E0, symSize: 0x8D0 }
  - { offset: 0x28575, size: 0x8, addend: 0x0, symName: __ZN10XArrayListIP5PointE10removeItemES1_PFvS1_E, symObjAddr: 0x163D8, symBinAddr: 0x10003CFB0, symSize: 0x1C0 }
  - { offset: 0x285D7, size: 0x8, addend: 0x0, symName: __ZN11T_ArrayList7array33Ev, symObjAddr: 0x16598, symBinAddr: 0x10003D170, symSize: 0xB2C }
  - { offset: 0x2873D, size: 0x8, addend: 0x0, symName: __ZN10XArrayListIP5PointE5beginEv, symObjAddr: 0x1735C, symBinAddr: 0x10003DC9C, symSize: 0x200 }
  - { offset: 0x28764, size: 0x8, addend: 0x0, symName: __ZN10XArrayListIP5PointE8IteratorneERKS3_, symObjAddr: 0x1755C, symBinAddr: 0x10003DE9C, symSize: 0x108 }
  - { offset: 0x28798, size: 0x8, addend: 0x0, symName: __ZN10XArrayListIP5PointE3endEv, symObjAddr: 0x17664, symBinAddr: 0x10003DFA4, symSize: 0x260 }
  - { offset: 0x287BF, size: 0x8, addend: 0x0, symName: __ZN10XArrayListIP5PointE8IteratordeEv, symObjAddr: 0x178C4, symBinAddr: 0x10003E204, symSize: 0x110 }
  - { offset: 0x287E5, size: 0x8, addend: 0x0, symName: __ZN10XArrayListIP5PointE8IteratorppEv, symObjAddr: 0x179D4, symBinAddr: 0x10003E314, symSize: 0x90 }
  - { offset: 0x28810, size: 0x8, addend: 0x0, symName: __ZN11T_ArrayList7array34Ev, symObjAddr: 0x17AD4, symBinAddr: 0x10003E3A4, symSize: 0xCA8 }
  - { offset: 0x288B6, size: 0x8, addend: 0x0, symName: __ZN10XArrayListIP5PointE8Iterator6removeEPFvS1_E, symObjAddr: 0x1877C, symBinAddr: 0x10003F04C, symSize: 0x1E0 }
  - { offset: 0x288F8, size: 0x8, addend: 0x0, symName: __ZN10XArrayListIP5PointE8IteratorppEi, symObjAddr: 0x1895C, symBinAddr: 0x10003F22C, symSize: 0x210 }
  - { offset: 0x2893D, size: 0x8, addend: 0x0, symName: __ZN11T_ArrayList7array35Ev, symObjAddr: 0x18B6C, symBinAddr: 0x10003F43C, symSize: 0xE10 }
  - { offset: 0x28A18, size: 0x8, addend: 0x0, symName: __ZNSt3__112basic_stringIcNS_11char_traitsIcEENS_9allocatorIcEEE13__move_assignB8ne180100ERS5_NS_17integral_constantIbLb1EEE, symObjAddr: 0x1C434, symBinAddr: 0x10004047C, symSize: 0x384 }
  - { offset: 0x28A7E, size: 0x8, addend: 0x0, symName: __ZNSt3__116allocator_traitsINS_9allocatorIcEEE10deallocateB8ne180100ERS2_Pcm, symObjAddr: 0x1C7C8, symBinAddr: 0x100040800, symSize: 0x34 }
  - { offset: 0x28AC0, size: 0x8, addend: 0x0, symName: __ZNSt3__112basic_stringIcNS_11char_traitsIcEENS_9allocatorIcEEE7__allocB8ne180100Ev, symObjAddr: 0x1C7FC, symBinAddr: 0x100040834, symSize: 0x24 }
  - { offset: 0x28AE6, size: 0x8, addend: 0x0, symName: __ZNKSt3__112basic_stringIcNS_11char_traitsIcEENS_9allocatorIcEEE14__get_long_capB8ne180100Ev, symObjAddr: 0x1C820, symBinAddr: 0x100040858, symSize: 0x78 }
  - { offset: 0x28B0C, size: 0x8, addend: 0x0, symName: __ZNSt3__112basic_stringIcNS_11char_traitsIcEENS_9allocatorIcEEE19__move_assign_allocB8ne180100ERS5_, symObjAddr: 0x1C898, symBinAddr: 0x1000408D0, symSize: 0x2C }
  - { offset: 0x28B41, size: 0x8, addend: 0x0, symName: __ZNSt3__112basic_stringIcNS_11char_traitsIcEENS_9allocatorIcEEE16__set_short_sizeB8ne180100Em, symObjAddr: 0x1C8C4, symBinAddr: 0x1000408FC, symSize: 0x130 }
  - { offset: 0x28B76, size: 0x8, addend: 0x0, symName: __ZNSt3__111char_traitsIcE6assignB8ne180100ERcRKc, symObjAddr: 0x1C9F4, symBinAddr: 0x100040A2C, symSize: 0xF4 }
  - { offset: 0x28BA7, size: 0x8, addend: 0x0, symName: __ZNKSt3__112basic_stringIcNS_11char_traitsIcEENS_9allocatorIcEEE17__annotate_shrinkB8ne180100Em, symObjAddr: 0x1CAE8, symBinAddr: 0x100040B20, symSize: 0x14 }
  - { offset: 0x28BDC, size: 0x8, addend: 0x0, symName: __ZNSt3__19allocatorIcE10deallocateB8ne180100EPcm, symObjAddr: 0x1CB10, symBinAddr: 0x100040B34, symSize: 0x4C }
  - { offset: 0x28C1E, size: 0x8, addend: 0x0, symName: __ZNSt3__117__compressed_pairINS_12basic_stringIcNS_11char_traitsIcEENS_9allocatorIcEEE5__repES5_E6secondB8ne180100Ev, symObjAddr: 0x1CC84, symBinAddr: 0x100040B80, symSize: 0x24 }
  - { offset: 0x28C44, size: 0x8, addend: 0x0, symName: __ZNSt3__122__compressed_pair_elemINS_9allocatorIcEELi1ELb1EE5__getB8ne180100Ev, symObjAddr: 0x1CCA8, symBinAddr: 0x100040BA4, symSize: 0x14 }
  - { offset: 0x28C6A, size: 0x8, addend: 0x0, symName: __ZNSt3__112basic_stringIcNS_11char_traitsIcEENS_9allocatorIcEEE19__move_assign_allocB8ne180100ERS5_NS_17integral_constantIbLb1EEE, symObjAddr: 0x1CCBC, symBinAddr: 0x100040BB8, symSize: 0x38 }
  - { offset: 0x28CAB, size: 0x8, addend: 0x0, symName: __ZNSt3__112basic_stringIcNS_11char_traitsIcEENS_9allocatorIcEEE6appendB8ne180100ERKS5_, symObjAddr: 0x1CCF4, symBinAddr: 0x100040BF0, symSize: 0x4C }
  - { offset: 0x28CE0, size: 0x8, addend: 0x0, symName: __ZNSt3__13mapINS_12basic_stringIcNS_11char_traitsIcEENS_9allocatorIcEEEEM11T_ArrayListFbvENS_4lessIS6_EENS4_INS_4pairIKS6_S9_EEEEEC2B8ne180100Ev, symObjAddr: 0x1D324, symBinAddr: 0x100040C3C, symSize: 0x1E0 }
  - { offset: 0x28D0B, size: 0x8, addend: 0x0, symName: __ZNSt3__119__map_value_compareINS_12basic_stringIcNS_11char_traitsIcEENS_9allocatorIcEEEENS_12__value_typeIS6_M11T_ArrayListFbvEEENS_4lessIS6_EELb1EEC1B8ne180100ESD_, symObjAddr: 0x1D504, symBinAddr: 0x100040E1C, symSize: 0x2C }
  - { offset: 0x28D44, size: 0x8, addend: 0x0, symName: __ZNSt3__16__treeINS_12__value_typeINS_12basic_stringIcNS_11char_traitsIcEENS_9allocatorIcEEEEM11T_ArrayListFbvEEENS_19__map_value_compareIS7_SB_NS_4lessIS7_EELb1EEENS5_ISB_EEEC1ERKSF_, symObjAddr: 0x1D530, symBinAddr: 0x100040E48, symSize: 0x34 }
  - { offset: 0x28D7F, size: 0x8, addend: 0x0, symName: __ZNSt3__119__map_value_compareINS_12basic_stringIcNS_11char_traitsIcEENS_9allocatorIcEEEENS_12__value_typeIS6_M11T_ArrayListFbvEEENS_4lessIS6_EELb1EEC2B8ne180100ESD_, symObjAddr: 0x1D564, symBinAddr: 0x100040E7C, symSize: 0x14 }
  - { offset: 0x28DB8, size: 0x8, addend: 0x0, symName: __ZNSt3__16__treeINS_12__value_typeINS_12basic_stringIcNS_11char_traitsIcEENS_9allocatorIcEEEEM11T_ArrayListFbvEEENS_19__map_value_compareIS7_SB_NS_4lessIS7_EELb1EEENS5_ISB_EEEC2ERKSF_, symObjAddr: 0x1D578, symBinAddr: 0x100040E90, symSize: 0x30C }
  - { offset: 0x28DF5, size: 0x8, addend: 0x0, symName: __ZNSt3__117__compressed_pairINS_15__tree_end_nodeIPNS_16__tree_node_baseIPvEEEENS_9allocatorINS_11__tree_nodeINS_12__value_typeINS_12basic_stringIcNS_11char_traitsIcEENS7_IcEEEEM11T_ArrayListFbvEEES3_EEEEEC1B8ne180100ILb1EvEEv, symObjAddr: 0x1D884, symBinAddr: 0x10004119C, symSize: 0x2C }
  - { offset: 0x28E30, size: 0x8, addend: 0x0, symName: __ZNSt3__117__compressed_pairImNS_19__map_value_compareINS_12basic_stringIcNS_11char_traitsIcEENS_9allocatorIcEEEENS_12__value_typeIS7_M11T_ArrayListFbvEEENS_4lessIS7_EELb1EEEEC1B8ne180100IiRKSF_EEOT_OT0_, symObjAddr: 0x1D8B0, symBinAddr: 0x1000411C8, symSize: 0x3C }
  - { offset: 0x28E88, size: 0x8, addend: 0x0, symName: __ZNSt3__117__compressed_pairINS_15__tree_end_nodeIPNS_16__tree_node_baseIPvEEEENS_9allocatorINS_11__tree_nodeINS_12__value_typeINS_12basic_stringIcNS_11char_traitsIcEENS7_IcEEEEM11T_ArrayListFbvEEES3_EEEEEC2B8ne180100ILb1EvEEv, symObjAddr: 0x1D92C, symBinAddr: 0x100041204, symSize: 0x34 }
  - { offset: 0x28EBD, size: 0x8, addend: 0x0, symName: __ZNSt3__122__compressed_pair_elemINS_15__tree_end_nodeIPNS_16__tree_node_baseIPvEEEELi0ELb0EEC2B8ne180100ENS_16__value_init_tagE, symObjAddr: 0x1D960, symBinAddr: 0x100041238, symSize: 0x2C }
  - { offset: 0x28EF2, size: 0x8, addend: 0x0, symName: __ZNSt3__122__compressed_pair_elemINS_9allocatorINS_11__tree_nodeINS_12__value_typeINS_12basic_stringIcNS_11char_traitsIcEENS1_IcEEEEM11T_ArrayListFbvEEEPvEEEELi1ELb1EEC2B8ne180100ENS_16__value_init_tagE, symObjAddr: 0x1D98C, symBinAddr: 0x100041264, symSize: 0x2C }
  - { offset: 0x28F27, size: 0x8, addend: 0x0, symName: __ZNSt3__115__tree_end_nodeIPNS_16__tree_node_baseIPvEEEC1B8ne180100Ev, symObjAddr: 0x1D9B8, symBinAddr: 0x100041290, symSize: 0x2C }
  - { offset: 0x28F51, size: 0x8, addend: 0x0, symName: __ZNSt3__115__tree_end_nodeIPNS_16__tree_node_baseIPvEEEC2B8ne180100Ev, symObjAddr: 0x1D9E4, symBinAddr: 0x1000412BC, symSize: 0x60 }
  - { offset: 0x28F7B, size: 0x8, addend: 0x0, symName: __ZNSt3__19allocatorINS_11__tree_nodeINS_12__value_typeINS_12basic_stringIcNS_11char_traitsIcEENS0_IcEEEEM11T_ArrayListFbvEEEPvEEEC2B8ne180100Ev, symObjAddr: 0x1DA44, symBinAddr: 0x10004131C, symSize: 0x2C }
  - { offset: 0x28FA5, size: 0x8, addend: 0x0, symName: __ZNSt3__116__non_trivial_ifILb1ENS_9allocatorINS_11__tree_nodeINS_12__value_typeINS_12basic_stringIcNS_11char_traitsIcEENS1_IcEEEEM11T_ArrayListFbvEEEPvEEEEEC2B8ne180100Ev, symObjAddr: 0x1DA70, symBinAddr: 0x100041348, symSize: 0x14 }
  - { offset: 0x28FCF, size: 0x8, addend: 0x0, symName: __ZNSt3__117__compressed_pairImNS_19__map_value_compareINS_12basic_stringIcNS_11char_traitsIcEENS_9allocatorIcEEEENS_12__value_typeIS7_M11T_ArrayListFbvEEENS_4lessIS7_EELb1EEEEC2B8ne180100IiRKSF_EEOT_OT0_, symObjAddr: 0x1DA84, symBinAddr: 0x10004135C, symSize: 0x44 }
  - { offset: 0x29027, size: 0x8, addend: 0x0, symName: __ZNSt3__122__compressed_pair_elemImLi0ELb0EEC2B8ne180100IivEEOT_, symObjAddr: 0x1DAC8, symBinAddr: 0x1000413A0, symSize: 0xD8 }
  - { offset: 0x29069, size: 0x8, addend: 0x0, symName: __ZNSt3__122__compressed_pair_elemINS_19__map_value_compareINS_12basic_stringIcNS_11char_traitsIcEENS_9allocatorIcEEEENS_12__value_typeIS7_M11T_ArrayListFbvEEENS_4lessIS7_EELb1EEELi1ELb1EEC2B8ne180100IRKSF_vEEOT_, symObjAddr: 0x1DBA0, symBinAddr: 0x100041478, symSize: 0x18 }
  - { offset: 0x290AB, size: 0x8, addend: 0x0, symName: __ZNSt3__13mapINS_12basic_stringIcNS_11char_traitsIcEENS_9allocatorIcEEEEM11T_ArrayListFbvENS_4lessIS6_EENS4_INS_4pairIKS6_S9_EEEEED2B8ne180100Ev, symObjAddr: 0x1DC04, symBinAddr: 0x100041490, symSize: 0x2C }
  - { offset: 0x290D5, size: 0x8, addend: 0x0, symName: __ZNSt3__16__treeINS_12__value_typeINS_12basic_stringIcNS_11char_traitsIcEENS_9allocatorIcEEEEM11T_ArrayListFbvEEENS_19__map_value_compareIS7_SB_NS_4lessIS7_EELb1EEENS5_ISB_EEED1Ev, symObjAddr: 0x1DC30, symBinAddr: 0x1000414BC, symSize: 0x2C }
  - { offset: 0x29101, size: 0x8, addend: 0x0, symName: __ZNSt3__16__treeINS_12__value_typeINS_12basic_stringIcNS_11char_traitsIcEENS_9allocatorIcEEEEM11T_ArrayListFbvEEENS_19__map_value_compareIS7_SB_NS_4lessIS7_EELb1EEENS5_ISB_EEED2Ev, symObjAddr: 0x1DC5C, symBinAddr: 0x1000414E8, symSize: 0x38 }
  - { offset: 0x2912D, size: 0x8, addend: 0x0, symName: __ZNSt3__16__treeINS_12__value_typeINS_12basic_stringIcNS_11char_traitsIcEENS_9allocatorIcEEEEM11T_ArrayListFbvEEENS_19__map_value_compareIS7_SB_NS_4lessIS7_EELb1EEENS5_ISB_EEE7destroyEPNS_11__tree_nodeISB_PvEE, symObjAddr: 0x1DC94, symBinAddr: 0x100041520, symSize: 0x134 }
  - { offset: 0x29179, size: 0x8, addend: 0x0, symName: __ZN10XArrayListIiEC2EPFvPS0_EPFbRiS4_Ei, symObjAddr: 0x1E0A0, symBinAddr: 0x100041654, symSize: 0x270 }
  - { offset: 0x291CE, size: 0x8, addend: 0x0, symName: __ZN5IListIiEC2Ev, symObjAddr: 0x1E310, symBinAddr: 0x1000418C4, symSize: 0x6C }
  - { offset: 0x291FA, size: 0x8, addend: 0x0, symName: __ZN5IListIiED2Ev, symObjAddr: 0x1E37C, symBinAddr: 0x100041930, symSize: 0x14 }
  - { offset: 0x29224, size: 0x8, addend: 0x0, symName: __ZN10XArrayListIiED0Ev, symObjAddr: 0x1E390, symBinAddr: 0x100041944, symSize: 0x30 }
  - { offset: 0x2924F, size: 0x8, addend: 0x0, symName: __ZN5IListIiED1Ev, symObjAddr: 0x1E3C0, symBinAddr: 0x100041974, symSize: 0x20 }
  - { offset: 0x29279, size: 0x8, addend: 0x0, symName: __ZN5IListIiED0Ev, symObjAddr: 0x1E3E0, symBinAddr: 0x100041994, symSize: 0x18 }
  - { offset: 0x292A3, size: 0x8, addend: 0x0, symName: __ZN10XArrayListIiED2Ev, symObjAddr: 0x1E3F8, symBinAddr: 0x1000419AC, symSize: 0x90 }
  - { offset: 0x292CE, size: 0x8, addend: 0x0, symName: __ZN10XArrayListIiE18removeInternalDataEv, symObjAddr: 0x1E488, symBinAddr: 0x100041A3C, symSize: 0x118 }
  - { offset: 0x292F5, size: 0x8, addend: 0x0, symName: __ZN10XArrayListIiE14ensureCapacityEi, symObjAddr: 0x1E5A0, symBinAddr: 0x100041B54, symSize: 0x8D8 }
  - { offset: 0x29379, size: 0x8, addend: 0x0, symName: __ZNSt12out_of_rangeC1B8ne180100EPKc, symObjAddr: 0x1EE78, symBinAddr: 0x10004242C, symSize: 0x34 }
  - { offset: 0x293CA, size: 0x8, addend: 0x0, symName: __ZNSt9bad_allocC1B8ne180100ERKS_, symObjAddr: 0x1EEAC, symBinAddr: 0x100042460, symSize: 0x34 }
  - { offset: 0x293FF, size: 0x8, addend: 0x0, symName: __ZNSt12out_of_rangeC2B8ne180100EPKc, symObjAddr: 0x1EEE0, symBinAddr: 0x100042494, symSize: 0x84 }
  - { offset: 0x29437, size: 0x8, addend: 0x0, symName: __ZNSt9bad_allocC2B8ne180100ERKS_, symObjAddr: 0x1EF64, symBinAddr: 0x100042518, symSize: 0x84 }
  - { offset: 0x2946C, size: 0x8, addend: 0x0, symName: __ZNSt9exceptionC2B8ne180100ERKS_, symObjAddr: 0x1EFE8, symBinAddr: 0x10004259C, symSize: 0x70 }
  - { offset: 0x294A1, size: 0x8, addend: 0x0, symName: __ZN10XArrayListIiE10checkIndexEi, symObjAddr: 0x1F058, symBinAddr: 0x10004260C, symSize: 0x128 }
  - { offset: 0x294D7, size: 0x8, addend: 0x0, symName: __ZN10XArrayListIiE6equalsERiS1_PFbS1_S1_E, symObjAddr: 0x1F180, symBinAddr: 0x100042734, symSize: 0x158 }
  - { offset: 0x29516, size: 0x8, addend: 0x0, symName: __ZN10XArrayListI5PointEC2EPFvPS1_EPFbRS0_S5_Ei, symObjAddr: 0x1F2D8, symBinAddr: 0x10004288C, symSize: 0x30C }
  - { offset: 0x2956B, size: 0x8, addend: 0x0, symName: __ZN5IListI5PointEC2Ev, symObjAddr: 0x1F5E4, symBinAddr: 0x100042B98, symSize: 0x6C }
  - { offset: 0x29597, size: 0x8, addend: 0x0, symName: __ZN5IListI5PointED2Ev, symObjAddr: 0x1F650, symBinAddr: 0x100042C04, symSize: 0x14 }
  - { offset: 0x295C1, size: 0x8, addend: 0x0, symName: __ZN10XArrayListI5PointED0Ev, symObjAddr: 0x1F664, symBinAddr: 0x100042C18, symSize: 0x30 }
  - { offset: 0x295EC, size: 0x8, addend: 0x0, symName: __ZN10XArrayListI5PointE3addEiS0_, symObjAddr: 0x1F694, symBinAddr: 0x100042C48, symSize: 0x3A0 }
  - { offset: 0x2964E, size: 0x8, addend: 0x0, symName: __ZN10XArrayListI5PointE8removeAtEi, symObjAddr: 0x1FA34, symBinAddr: 0x100042FE8, symSize: 0x254 }
  - { offset: 0x296B1, size: 0x8, addend: 0x0, symName: __ZN10XArrayListI5PointE10removeItemES0_PFvS0_E, symObjAddr: 0x1FC88, symBinAddr: 0x10004323C, symSize: 0x3C0 }
  - { offset: 0x2971C, size: 0x8, addend: 0x0, symName: __ZN10XArrayListI5PointE5emptyEv, symObjAddr: 0x20048, symBinAddr: 0x1000435FC, symSize: 0x98 }
  - { offset: 0x29744, size: 0x8, addend: 0x0, symName: __ZN10XArrayListI5PointE4sizeEv, symObjAddr: 0x200E0, symBinAddr: 0x100043694, symSize: 0x8C }
  - { offset: 0x2976C, size: 0x8, addend: 0x0, symName: __ZN10XArrayListI5PointE5clearEv, symObjAddr: 0x2016C, symBinAddr: 0x100043720, symSize: 0x1FC }
  - { offset: 0x29794, size: 0x8, addend: 0x0, symName: __ZN10XArrayListI5PointE3getEi, symObjAddr: 0x20368, symBinAddr: 0x10004391C, symSize: 0x8C }
  - { offset: 0x297CA, size: 0x8, addend: 0x0, symName: __ZN5IListI5PointED1Ev, symObjAddr: 0x203F4, symBinAddr: 0x1000439A8, symSize: 0x20 }
  - { offset: 0x297F4, size: 0x8, addend: 0x0, symName: __ZN5IListI5PointED0Ev, symObjAddr: 0x20414, symBinAddr: 0x1000439C8, symSize: 0x18 }
  - { offset: 0x2981E, size: 0x8, addend: 0x0, symName: __ZN10XArrayListI5PointE14ensureCapacityEi, symObjAddr: 0x2042C, symBinAddr: 0x1000439E0, symSize: 0x8B4 }
  - { offset: 0x298A2, size: 0x8, addend: 0x0, symName: __ZN10XArrayListI5PointE10checkIndexEi, symObjAddr: 0x20CE0, symBinAddr: 0x100044294, symSize: 0x128 }
  - { offset: 0x298D8, size: 0x8, addend: 0x0, symName: __ZN10XArrayListI5PointE18removeInternalDataEv, symObjAddr: 0x20E08, symBinAddr: 0x1000443BC, symSize: 0x118 }
  - { offset: 0x298FF, size: 0x8, addend: 0x0, symName: __ZN10XArrayListI5PointED2Ev, symObjAddr: 0x20F20, symBinAddr: 0x1000444D4, symSize: 0x90 }
  - { offset: 0x2992A, size: 0x8, addend: 0x0, symName: __ZN10XArrayListI5PointE6equalsERS0_S2_PFbS2_S2_E, symObjAddr: 0x20FB0, symBinAddr: 0x100044564, symSize: 0x224 }
  - { offset: 0x2996C, size: 0x8, addend: 0x0, symName: __ZN10XArrayListIP5PointEC2EPFvPS2_EPFbRS1_S6_Ei, symObjAddr: 0x211D4, symBinAddr: 0x100044788, symSize: 0x270 }
  - { offset: 0x299C1, size: 0x8, addend: 0x0, symName: __ZN5IListIP5PointEC2Ev, symObjAddr: 0x21444, symBinAddr: 0x1000449F8, symSize: 0x6C }
  - { offset: 0x299ED, size: 0x8, addend: 0x0, symName: __ZN5IListIP5PointED2Ev, symObjAddr: 0x214B0, symBinAddr: 0x100044A64, symSize: 0x14 }
  - { offset: 0x29A17, size: 0x8, addend: 0x0, symName: __ZN10XArrayListIP5PointED0Ev, symObjAddr: 0x214C4, symBinAddr: 0x100044A78, symSize: 0x30 }
  - { offset: 0x29A42, size: 0x8, addend: 0x0, symName: __ZN10XArrayListIP5PointE3addEiS1_, symObjAddr: 0x214F4, symBinAddr: 0x100044AA8, symSize: 0x42C }
  - { offset: 0x29AA3, size: 0x8, addend: 0x0, symName: __ZN10XArrayListIP5PointE8removeAtEi, symObjAddr: 0x21920, symBinAddr: 0x100044ED4, symSize: 0x2DC }
  - { offset: 0x29B05, size: 0x8, addend: 0x0, symName: __ZN10XArrayListIP5PointE5emptyEv, symObjAddr: 0x21BFC, symBinAddr: 0x1000451B0, symSize: 0x98 }
  - { offset: 0x29B2D, size: 0x8, addend: 0x0, symName: __ZN10XArrayListIP5PointE4sizeEv, symObjAddr: 0x21C94, symBinAddr: 0x100045248, symSize: 0x8C }
  - { offset: 0x29B55, size: 0x8, addend: 0x0, symName: __ZN10XArrayListIP5PointE3getEi, symObjAddr: 0x21D20, symBinAddr: 0x1000452D4, symSize: 0x84 }
  - { offset: 0x29B8B, size: 0x8, addend: 0x0, symName: __ZN10XArrayListIP5PointE7indexOfES1_, symObjAddr: 0x21DA4, symBinAddr: 0x100045358, symSize: 0x364 }
  - { offset: 0x29BE4, size: 0x8, addend: 0x0, symName: __ZN10XArrayListIP5PointE8containsES1_, symObjAddr: 0x22108, symBinAddr: 0x1000456BC, symSize: 0xC4 }
  - { offset: 0x29C1A, size: 0x8, addend: 0x0, symName: __ZN5IListIP5PointED1Ev, symObjAddr: 0x221CC, symBinAddr: 0x100045780, symSize: 0x20 }
  - { offset: 0x29C44, size: 0x8, addend: 0x0, symName: __ZN5IListIP5PointED0Ev, symObjAddr: 0x221EC, symBinAddr: 0x1000457A0, symSize: 0x18 }
  - { offset: 0x29C6E, size: 0x8, addend: 0x0, symName: __ZN10XArrayListIP5PointE14ensureCapacityEi, symObjAddr: 0x22204, symBinAddr: 0x1000457B8, symSize: 0x888 }
  - { offset: 0x29CF2, size: 0x8, addend: 0x0, symName: __ZN10XArrayListIP5PointE10checkIndexEi, symObjAddr: 0x22A8C, symBinAddr: 0x100046040, symSize: 0x128 }
  - { offset: 0x29D28, size: 0x8, addend: 0x0, symName: __ZN10XArrayListIP5PointE6equalsERS1_S3_PFbS3_S3_E, symObjAddr: 0x22BB4, symBinAddr: 0x100046168, symSize: 0x108 }
  - { offset: 0x29D67, size: 0x8, addend: 0x0, symName: __ZN10XArrayListIP5PointED2Ev, symObjAddr: 0x22CBC, symBinAddr: 0x100046270, symSize: 0x90 }
  - { offset: 0x29D92, size: 0x8, addend: 0x0, symName: __ZN10XArrayListIP5PointE18removeInternalDataEv, symObjAddr: 0x22D4C, symBinAddr: 0x100046300, symSize: 0x118 }
  - { offset: 0x29DB9, size: 0x8, addend: 0x0, symName: __ZN10XArrayListIP5PointE8IteratorC1EPS2_i, symObjAddr: 0x23A94, symBinAddr: 0x100046418, symSize: 0x3C }
  - { offset: 0x29DFF, size: 0x8, addend: 0x0, symName: __ZN10XArrayListIP5PointE8IteratorC2EPS2_i, symObjAddr: 0x23AD0, symBinAddr: 0x100046454, symSize: 0xE4 }
  - { offset: 0x2BD82, size: 0x8, addend: 0x0, symName: __ZN12T_LinkedList5TESTSE, symObjAddr: 0x742A0, symBinAddr: 0x100092240, symSize: 0x0 }
  - { offset: 0x31977, size: 0x8, addend: 0x0, symName: _.str, symObjAddr: 0x28200, symBinAddr: 0x100074040, symSize: 0x0 }
  - { offset: 0x31994, size: 0x8, addend: 0x0, symName: _.str.1, symObjAddr: 0x28220, symBinAddr: 0x100074060, symSize: 0x0 }
  - { offset: 0x319B1, size: 0x8, addend: 0x0, symName: _.str.2, symObjAddr: 0x28260, symBinAddr: 0x1000740A0, symSize: 0x0 }
  - { offset: 0x319CE, size: 0x8, addend: 0x0, symName: _.str.3, symObjAddr: 0x28280, symBinAddr: 0x1000740C0, symSize: 0x0 }
  - { offset: 0x319EB, size: 0x8, addend: 0x0, symName: _.str.4, symObjAddr: 0x282A0, symBinAddr: 0x1000740E0, symSize: 0x0 }
  - { offset: 0x319FC, size: 0x8, addend: 0x0, symName: _.str.5, symObjAddr: 0x282C0, symBinAddr: 0x100074100, symSize: 0x0 }
  - { offset: 0x31A19, size: 0x8, addend: 0x0, symName: _.str.6, symObjAddr: 0x28300, symBinAddr: 0x100074140, symSize: 0x0 }
  - { offset: 0x31A2A, size: 0x8, addend: 0x0, symName: _.str.7, symObjAddr: 0x28320, symBinAddr: 0x100074160, symSize: 0x0 }
  - { offset: 0x31A47, size: 0x8, addend: 0x0, symName: _.str.8, symObjAddr: 0x28380, symBinAddr: 0x1000741C0, symSize: 0x0 }
  - { offset: 0x31A58, size: 0x8, addend: 0x0, symName: _.str.9, symObjAddr: 0x283A0, symBinAddr: 0x1000741E0, symSize: 0x0 }
  - { offset: 0x31A75, size: 0x8, addend: 0x0, symName: _.str.10, symObjAddr: 0x283E0, symBinAddr: 0x100074220, symSize: 0x0 }
  - { offset: 0x31A86, size: 0x8, addend: 0x0, symName: _.str.11, symObjAddr: 0x28400, symBinAddr: 0x100074240, symSize: 0x0 }
  - { offset: 0x31AA3, size: 0x8, addend: 0x0, symName: _.str.12, symObjAddr: 0x28460, symBinAddr: 0x1000742A0, symSize: 0x0 }
  - { offset: 0x31AB4, size: 0x8, addend: 0x0, symName: _.str.13, symObjAddr: 0x28480, symBinAddr: 0x1000742C0, symSize: 0x0 }
  - { offset: 0x31AD1, size: 0x8, addend: 0x0, symName: _.str.14, symObjAddr: 0x29180, symBinAddr: 0x100071C40, symSize: 0x0 }
  - { offset: 0x31AEE, size: 0x8, addend: 0x0, symName: _.str.15, symObjAddr: 0x284E0, symBinAddr: 0x100074320, symSize: 0x0 }
  - { offset: 0x31B0B, size: 0x8, addend: 0x0, symName: _.str.16, symObjAddr: 0x28520, symBinAddr: 0x100074360, symSize: 0x0 }
  - { offset: 0x31B1C, size: 0x8, addend: 0x0, symName: _.str.17, symObjAddr: 0x28540, symBinAddr: 0x100074380, symSize: 0x0 }
  - { offset: 0x31B2D, size: 0x8, addend: 0x0, symName: _.str.18, symObjAddr: 0x28560, symBinAddr: 0x1000743A0, symSize: 0x0 }
  - { offset: 0x31B3E, size: 0x8, addend: 0x0, symName: _.str.19, symObjAddr: 0x28580, symBinAddr: 0x1000743C0, symSize: 0x0 }
  - { offset: 0x31B5B, size: 0x8, addend: 0x0, symName: _.str.20, symObjAddr: 0x285A0, symBinAddr: 0x1000743E0, symSize: 0x0 }
  - { offset: 0x31B6C, size: 0x8, addend: 0x0, symName: _.str.21, symObjAddr: 0x285C0, symBinAddr: 0x100074400, symSize: 0x0 }
  - { offset: 0x31B89, size: 0x8, addend: 0x0, symName: _.str.22, symObjAddr: 0x28600, symBinAddr: 0x100074440, symSize: 0x0 }
  - { offset: 0x31B9A, size: 0x8, addend: 0x0, symName: _.str.23, symObjAddr: 0x28620, symBinAddr: 0x100074460, symSize: 0x0 }
  - { offset: 0x31BAC, size: 0x8, addend: 0x0, symName: _.str.24, symObjAddr: 0x28640, symBinAddr: 0x100074480, symSize: 0x0 }
  - { offset: 0x31BBE, size: 0x8, addend: 0x0, symName: _.str.25, symObjAddr: 0x28660, symBinAddr: 0x1000744A0, symSize: 0x0 }
  - { offset: 0x31BDC, size: 0x8, addend: 0x0, symName: _.str.26, symObjAddr: 0x286A0, symBinAddr: 0x1000744E0, symSize: 0x0 }
  - { offset: 0x31BEE, size: 0x8, addend: 0x0, symName: _.str.27, symObjAddr: 0x286C0, symBinAddr: 0x100074500, symSize: 0x0 }
  - { offset: 0x31C0C, size: 0x8, addend: 0x0, symName: _.str.28, symObjAddr: 0x286E0, symBinAddr: 0x100074520, symSize: 0x0 }
  - { offset: 0x31C1E, size: 0x8, addend: 0x0, symName: _.str.29, symObjAddr: 0x28700, symBinAddr: 0x100074540, symSize: 0x0 }
  - { offset: 0x31C30, size: 0x8, addend: 0x0, symName: _.str.30, symObjAddr: 0x28740, symBinAddr: 0x100074580, symSize: 0x0 }
  - { offset: 0x31C42, size: 0x8, addend: 0x0, symName: _.str.31, symObjAddr: 0x28760, symBinAddr: 0x1000745A0, symSize: 0x0 }
  - { offset: 0x31C60, size: 0x8, addend: 0x0, symName: _.str.32, symObjAddr: 0x287C0, symBinAddr: 0x100074600, symSize: 0x0 }
  - { offset: 0x31C72, size: 0x8, addend: 0x0, symName: _.str.33, symObjAddr: 0x287E0, symBinAddr: 0x100074620, symSize: 0x0 }
  - { offset: 0x31C84, size: 0x8, addend: 0x0, symName: _.str.34, symObjAddr: 0x28800, symBinAddr: 0x100074640, symSize: 0x0 }
  - { offset: 0x31CA2, size: 0x8, addend: 0x0, symName: _.str.35, symObjAddr: 0x28860, symBinAddr: 0x1000746A0, symSize: 0x0 }
  - { offset: 0x31CB4, size: 0x8, addend: 0x0, symName: _.str.36, symObjAddr: 0x28880, symBinAddr: 0x1000746C0, symSize: 0x0 }
  - { offset: 0x31CC6, size: 0x8, addend: 0x0, symName: _.str.37, symObjAddr: 0x288C0, symBinAddr: 0x100074700, symSize: 0x0 }
  - { offset: 0x31CD8, size: 0x8, addend: 0x0, symName: _.str.38, symObjAddr: 0x288E0, symBinAddr: 0x100074720, symSize: 0x0 }
  - { offset: 0x31CEA, size: 0x8, addend: 0x0, symName: _.str.39, symObjAddr: 0x28900, symBinAddr: 0x100074740, symSize: 0x0 }
  - { offset: 0x31CFC, size: 0x8, addend: 0x0, symName: _.str.40, symObjAddr: 0x28920, symBinAddr: 0x100074760, symSize: 0x0 }
  - { offset: 0x31D1A, size: 0x8, addend: 0x0, symName: _.str.41, symObjAddr: 0x28980, symBinAddr: 0x1000747C0, symSize: 0x0 }
  - { offset: 0x31D38, size: 0x8, addend: 0x0, symName: _.str.42, symObjAddr: 0x289A0, symBinAddr: 0x1000747E0, symSize: 0x0 }
  - { offset: 0x31D4A, size: 0x8, addend: 0x0, symName: _.str.43, symObjAddr: 0x289C0, symBinAddr: 0x100074800, symSize: 0x0 }
  - { offset: 0x31D5C, size: 0x8, addend: 0x0, symName: _.str.44, symObjAddr: 0x28A00, symBinAddr: 0x100074840, symSize: 0x0 }
  - { offset: 0x31D6E, size: 0x8, addend: 0x0, symName: _.str.45, symObjAddr: 0x28A40, symBinAddr: 0x100074880, symSize: 0x0 }
  - { offset: 0x31D80, size: 0x8, addend: 0x0, symName: _.str.46, symObjAddr: 0x28A60, symBinAddr: 0x1000748A0, symSize: 0x0 }
  - { offset: 0x31D92, size: 0x8, addend: 0x0, symName: _.str.47, symObjAddr: 0x28AA0, symBinAddr: 0x1000748E0, symSize: 0x0 }
  - { offset: 0x31DA4, size: 0x8, addend: 0x0, symName: _.str.48, symObjAddr: 0x28AC0, symBinAddr: 0x100074900, symSize: 0x0 }
  - { offset: 0x31DB6, size: 0x8, addend: 0x0, symName: _.str.49, symObjAddr: 0x28B00, symBinAddr: 0x100074940, symSize: 0x0 }
  - { offset: 0x31DC8, size: 0x8, addend: 0x0, symName: _.str.50, symObjAddr: 0x28B40, symBinAddr: 0x100074980, symSize: 0x0 }
  - { offset: 0x31DDA, size: 0x8, addend: 0x0, symName: _.str.51, symObjAddr: 0x28B60, symBinAddr: 0x1000749A0, symSize: 0x0 }
  - { offset: 0x31DF8, size: 0x8, addend: 0x0, symName: _.str.52, symObjAddr: 0x28B80, symBinAddr: 0x1000749C0, symSize: 0x0 }
  - { offset: 0x31E0A, size: 0x8, addend: 0x0, symName: _.str.53, symObjAddr: 0x28BA0, symBinAddr: 0x1000749E0, symSize: 0x0 }
  - { offset: 0x31E28, size: 0x8, addend: 0x0, symName: _.str.54, symObjAddr: 0x28BE0, symBinAddr: 0x100074A20, symSize: 0x0 }
  - { offset: 0x31E3A, size: 0x8, addend: 0x0, symName: _.str.55, symObjAddr: 0x28C00, symBinAddr: 0x100074A40, symSize: 0x0 }
  - { offset: 0x31E4C, size: 0x8, addend: 0x0, symName: _.str.56, symObjAddr: 0x28C40, symBinAddr: 0x100074A80, symSize: 0x0 }
  - { offset: 0x31E5E, size: 0x8, addend: 0x0, symName: _.str.57, symObjAddr: 0x28C60, symBinAddr: 0x100074AA0, symSize: 0x0 }
  - { offset: 0x31E7C, size: 0x8, addend: 0x0, symName: _.str.58, symObjAddr: 0x28CC0, symBinAddr: 0x100074B00, symSize: 0x0 }
  - { offset: 0x31E8E, size: 0x8, addend: 0x0, symName: _.str.59, symObjAddr: 0x28CE0, symBinAddr: 0x100074B20, symSize: 0x0 }
  - { offset: 0x31EA0, size: 0x8, addend: 0x0, symName: _.str.60, symObjAddr: 0x28D00, symBinAddr: 0x100074B40, symSize: 0x0 }
  - { offset: 0x31EB2, size: 0x8, addend: 0x0, symName: _.str.61, symObjAddr: 0x28D20, symBinAddr: 0x100074B60, symSize: 0x0 }
  - { offset: 0x31EC4, size: 0x8, addend: 0x0, symName: _.str.62, symObjAddr: 0x28D40, symBinAddr: 0x100074B80, symSize: 0x0 }
  - { offset: 0x31EE2, size: 0x8, addend: 0x0, symName: _.str.63, symObjAddr: 0x28DA0, symBinAddr: 0x100074BE0, symSize: 0x0 }
  - { offset: 0x31EF4, size: 0x8, addend: 0x0, symName: _.str.64, symObjAddr: 0x28DC0, symBinAddr: 0x100074C00, symSize: 0x0 }
  - { offset: 0x31F12, size: 0x8, addend: 0x0, symName: _.str.65, symObjAddr: 0x28DE0, symBinAddr: 0x100074C20, symSize: 0x0 }
  - { offset: 0x31F24, size: 0x8, addend: 0x0, symName: _.str.66, symObjAddr: 0x28E00, symBinAddr: 0x100074C40, symSize: 0x0 }
  - { offset: 0x31F36, size: 0x8, addend: 0x0, symName: _.str.67, symObjAddr: 0x28E20, symBinAddr: 0x100074C60, symSize: 0x0 }
  - { offset: 0x31F48, size: 0x8, addend: 0x0, symName: _.str.68, symObjAddr: 0x28E40, symBinAddr: 0x100074C80, symSize: 0x0 }
  - { offset: 0x31F66, size: 0x8, addend: 0x0, symName: _.str.69, symObjAddr: 0x28EA0, symBinAddr: 0x100074CE0, symSize: 0x0 }
  - { offset: 0x31F78, size: 0x8, addend: 0x0, symName: _.str.70, symObjAddr: 0x28EC0, symBinAddr: 0x100074D00, symSize: 0x0 }
  - { offset: 0x31F8A, size: 0x8, addend: 0x0, symName: _.str.71, symObjAddr: 0x28EE0, symBinAddr: 0x100074D20, symSize: 0x0 }
  - { offset: 0x31F9C, size: 0x8, addend: 0x0, symName: _.str.72, symObjAddr: 0x28F00, symBinAddr: 0x100074D40, symSize: 0x0 }
  - { offset: 0x31FAE, size: 0x8, addend: 0x0, symName: _.str.73, symObjAddr: 0x28F20, symBinAddr: 0x100074D60, symSize: 0x0 }
  - { offset: 0x31FCC, size: 0x8, addend: 0x0, symName: _.str.74, symObjAddr: 0x28F60, symBinAddr: 0x100074DA0, symSize: 0x0 }
  - { offset: 0x31FDE, size: 0x8, addend: 0x0, symName: _.str.75, symObjAddr: 0x28F80, symBinAddr: 0x100074DC0, symSize: 0x0 }
  - { offset: 0x31FF0, size: 0x8, addend: 0x0, symName: _.str.76, symObjAddr: 0x28FE0, symBinAddr: 0x100074E20, symSize: 0x0 }
  - { offset: 0x32002, size: 0x8, addend: 0x0, symName: _.str.77, symObjAddr: 0x29000, symBinAddr: 0x100074E40, symSize: 0x0 }
  - { offset: 0x32013, size: 0x8, addend: 0x0, symName: _.str.78, symObjAddr: 0x29040, symBinAddr: 0x100074E80, symSize: 0x0 }
  - { offset: 0x32024, size: 0x8, addend: 0x0, symName: _.str.79, symObjAddr: 0x29060, symBinAddr: 0x100074EA0, symSize: 0x0 }
  - { offset: 0x32035, size: 0x8, addend: 0x0, symName: _.str.80, symObjAddr: 0x290A0, symBinAddr: 0x100074EE0, symSize: 0x0 }
  - { offset: 0x32046, size: 0x8, addend: 0x0, symName: _.str.81, symObjAddr: 0x290C0, symBinAddr: 0x100074F00, symSize: 0x0 }
  - { offset: 0x32057, size: 0x8, addend: 0x0, symName: _.str.82, symObjAddr: 0x29100, symBinAddr: 0x100074F40, symSize: 0x0 }
  - { offset: 0x32074, size: 0x8, addend: 0x0, symName: _.str.83, symObjAddr: 0x29120, symBinAddr: 0x100074F60, symSize: 0x0 }
  - { offset: 0x32086, size: 0x8, addend: 0x0, symName: _.str.84, symObjAddr: 0x29140, symBinAddr: 0x100074F80, symSize: 0x0 }
  - { offset: 0x321CF, size: 0x8, addend: 0x0, symName: __ZNSt3__13mapINS_12basic_stringIcNS_11char_traitsIcEENS_9allocatorIcEEEEM12T_LinkedListFbvENS_4lessIS6_EENS4_INS_4pairIKS6_S9_EEEEEC1B8ne180100Ev, symObjAddr: 0x0, symBinAddr: 0x1000465EC, symSize: 0x2C }
  - { offset: 0x321F9, size: 0x8, addend: 0x0, symName: __ZNSt3__13mapINS_12basic_stringIcNS_11char_traitsIcEENS_9allocatorIcEEEEM12T_LinkedListFbvENS_4lessIS6_EENS4_INS_4pairIKS6_S9_EEEEED1B8ne180100Ev, symObjAddr: 0x2C, symBinAddr: 0x100046618, symSize: 0x2C }
  - { offset: 0x32223, size: 0x8, addend: 0x0, symName: __ZN12T_LinkedList11linkedList1Ev, symObjAddr: 0x58, symBinAddr: 0x100046644, symSize: 0x9A0 }
  - { offset: 0x326BD, size: 0x8, addend: 0x0, symName: __ZN11DLinkedListIiEC1EPFvPS0_EPFbRiS4_E, symObjAddr: 0xA2C, symBinAddr: 0x100046FE4, symSize: 0x3C }
  - { offset: 0x32705, size: 0x8, addend: 0x0, symName: __ZN11DLinkedListIiE8toStringEPFNSt3__112basic_stringIcNS1_11char_traitsIcEENS1_9allocatorIcEEEERiE, symObjAddr: 0xAE8, symBinAddr: 0x100047020, symSize: 0x77C }
  - { offset: 0x32760, size: 0x8, addend: 0x0, symName: __ZN11DLinkedListIiE4sizeEv, symObjAddr: 0x1264, symBinAddr: 0x10004779C, symSize: 0x8C }
  - { offset: 0x32788, size: 0x8, addend: 0x0, symName: __ZN11DLinkedListIiE5emptyEv, symObjAddr: 0x12F0, symBinAddr: 0x100047828, symSize: 0x98 }
  - { offset: 0x327B0, size: 0x8, addend: 0x0, symName: __ZN12T_LinkedList11printResultENSt3__112basic_stringIcNS0_11char_traitsIcEENS0_9allocatorIcEEEES6_S6_, symObjAddr: 0x1388, symBinAddr: 0x1000478C0, symSize: 0x66C }
  - { offset: 0x32807, size: 0x8, addend: 0x0, symName: __ZN11DLinkedListIiED1Ev, symObjAddr: 0x19F4, symBinAddr: 0x100047F2C, symSize: 0x2C }
  - { offset: 0x32833, size: 0x8, addend: 0x0, symName: __ZN12T_LinkedList11linkedList2Ev, symObjAddr: 0x1A20, symBinAddr: 0x100047F58, symSize: 0x9C4 }
  - { offset: 0x328A6, size: 0x8, addend: 0x0, symName: __ZN11DLinkedListIiE3addEi, symObjAddr: 0x23E4, symBinAddr: 0x10004891C, symSize: 0x2F0 }
  - { offset: 0x328EB, size: 0x8, addend: 0x0, symName: __ZN12T_LinkedList11linkedList3Ev, symObjAddr: 0x26D4, symBinAddr: 0x100048C0C, symSize: 0xA64 }
  - { offset: 0x3295E, size: 0x8, addend: 0x0, symName: __ZN12T_LinkedList11linkedList4Ev, symObjAddr: 0x3138, symBinAddr: 0x100049670, symSize: 0x8C4 }
  - { offset: 0x329D1, size: 0x8, addend: 0x0, symName: __ZN11DLinkedListIiE3addEii, symObjAddr: 0x39FC, symBinAddr: 0x100049F34, symSize: 0x308 }
  - { offset: 0x32A33, size: 0x8, addend: 0x0, symName: __ZN12T_LinkedList11linkedList5Ev, symObjAddr: 0x3D04, symBinAddr: 0x10004A23C, symSize: 0x948 }
  - { offset: 0x32AA6, size: 0x8, addend: 0x0, symName: __ZN12T_LinkedList11linkedList6Ev, symObjAddr: 0x464C, symBinAddr: 0x10004AB84, symSize: 0x8D4 }
  - { offset: 0x32B28, size: 0x8, addend: 0x0, symName: __ZN12T_LinkedList11linkedList7Ev, symObjAddr: 0x4FA8, symBinAddr: 0x10004B458, symSize: 0x924 }
  - { offset: 0x32BAA, size: 0x8, addend: 0x0, symName: __ZN12T_LinkedList11linkedList8Ev, symObjAddr: 0x58CC, symBinAddr: 0x10004BD7C, symSize: 0x8D0 }
  - { offset: 0x32C2C, size: 0x8, addend: 0x0, symName: __ZN11DLinkedListIiE8removeAtEi, symObjAddr: 0x619C, symBinAddr: 0x10004C64C, symSize: 0x390 }
  - { offset: 0x32C90, size: 0x8, addend: 0x0, symName: __ZN12T_LinkedList11linkedList9Ev, symObjAddr: 0x652C, symBinAddr: 0x10004C9DC, symSize: 0x920 }
  - { offset: 0x32D12, size: 0x8, addend: 0x0, symName: __ZN12T_LinkedList12linkedList10Ev, symObjAddr: 0x6E4C, symBinAddr: 0x10004D2FC, symSize: 0x9D4 }
  - { offset: 0x32D85, size: 0x8, addend: 0x0, symName: __ZN12T_LinkedList12linkedList11Ev, symObjAddr: 0x7820, symBinAddr: 0x10004DCD0, symSize: 0xA18 }
  - { offset: 0x32DF8, size: 0x8, addend: 0x0, symName: __ZN12T_LinkedList12linkedList12Ev, symObjAddr: 0x8238, symBinAddr: 0x10004E6E8, symSize: 0xB60 }
  - { offset: 0x32E70, size: 0x8, addend: 0x0, symName: __ZN11DLinkedListIiE10removeItemEiPFviE, symObjAddr: 0x8D98, symBinAddr: 0x10004F248, symSize: 0x694 }
  - { offset: 0x32ED8, size: 0x8, addend: 0x0, symName: __ZN12T_LinkedList12linkedList13Ev, symObjAddr: 0x9458, symBinAddr: 0x10004F8DC, symSize: 0xB60 }
  - { offset: 0x32F50, size: 0x8, addend: 0x0, symName: __ZN12T_LinkedList12linkedList14Ev, symObjAddr: 0x9FB8, symBinAddr: 0x10005043C, symSize: 0xB90 }
  - { offset: 0x32FC8, size: 0x8, addend: 0x0, symName: __ZN12T_LinkedList12linkedList15Ev, symObjAddr: 0xAB48, symBinAddr: 0x100050FCC, symSize: 0xB90 }
  - { offset: 0x33040, size: 0x8, addend: 0x0, symName: __ZN12T_LinkedList12linkedList16Ev, symObjAddr: 0xB6D8, symBinAddr: 0x100051B5C, symSize: 0xB90 }
  - { offset: 0x330B8, size: 0x8, addend: 0x0, symName: __ZN12T_LinkedList12linkedList17Ev, symObjAddr: 0xC268, symBinAddr: 0x1000526EC, symSize: 0xA38 }
  - { offset: 0x33130, size: 0x8, addend: 0x0, symName: __ZN11DLinkedListIiE5clearEv, symObjAddr: 0xCCA0, symBinAddr: 0x100053124, symSize: 0x24 }
  - { offset: 0x33158, size: 0x8, addend: 0x0, symName: __ZN12T_LinkedList12linkedList18Ev, symObjAddr: 0xCCC4, symBinAddr: 0x100053148, symSize: 0x8D0 }
  - { offset: 0x331E0, size: 0x8, addend: 0x0, symName: __ZN11DLinkedListIiE3getEi, symObjAddr: 0xD594, symBinAddr: 0x100053A18, symSize: 0x178 }
  - { offset: 0x33225, size: 0x8, addend: 0x0, symName: __ZN12T_LinkedList12linkedList19Ev, symObjAddr: 0xD70C, symBinAddr: 0x100053B90, symSize: 0x914 }
  - { offset: 0x332AD, size: 0x8, addend: 0x0, symName: __ZN12T_LinkedList12linkedList20Ev, symObjAddr: 0xE020, symBinAddr: 0x1000544A4, symSize: 0xBD8 }
  - { offset: 0x33325, size: 0x8, addend: 0x0, symName: __ZN12T_LinkedList12linkedList21Ev, symObjAddr: 0xEBF8, symBinAddr: 0x10005507C, symSize: 0x7AC }
  - { offset: 0x333AD, size: 0x8, addend: 0x0, symName: __ZN11DLinkedListIiE7indexOfEi, symObjAddr: 0xF3A4, symBinAddr: 0x100055828, symSize: 0x3EC }
  - { offset: 0x33416, size: 0x8, addend: 0x0, symName: __ZN12T_LinkedList12linkedList22Ev, symObjAddr: 0xF790, symBinAddr: 0x100055C14, symSize: 0x7AC }
  - { offset: 0x3349E, size: 0x8, addend: 0x0, symName: __ZN12T_LinkedList12linkedList23Ev, symObjAddr: 0xFF3C, symBinAddr: 0x1000563C0, symSize: 0x7C0 }
  - { offset: 0x33526, size: 0x8, addend: 0x0, symName: __ZN11DLinkedListIiE8containsEi, symObjAddr: 0x106FC, symBinAddr: 0x100056B80, symSize: 0xC4 }
  - { offset: 0x3355C, size: 0x8, addend: 0x0, symName: __ZN12T_LinkedList12linkedList24Ev, symObjAddr: 0x107C0, symBinAddr: 0x100056C44, symSize: 0x7C0 }
  - { offset: 0x335E4, size: 0x8, addend: 0x0, symName: __ZN12T_LinkedList12linkedList25Ev, symObjAddr: 0x10F80, symBinAddr: 0x100057404, symSize: 0x734 }
  - { offset: 0x33A88, size: 0x8, addend: 0x0, symName: __ZN11DLinkedListI5PointEC1EPFvPS1_EPFbRS0_S5_E, symObjAddr: 0x116B4, symBinAddr: 0x100057B38, symSize: 0x3C }
  - { offset: 0x33AD0, size: 0x8, addend: 0x0, symName: __ZN11DLinkedListI5PointE3addES0_, symObjAddr: 0x116F0, symBinAddr: 0x100057B74, symSize: 0x524 }
  - { offset: 0x33B19, size: 0x8, addend: 0x0, symName: __ZN11DLinkedListI5PointE8toStringEPFNSt3__112basic_stringIcNS2_11char_traitsIcEENS2_9allocatorIcEEEERS0_E, symObjAddr: 0x11C14, symBinAddr: 0x100058098, symSize: 0x710 }
  - { offset: 0x33B74, size: 0x8, addend: 0x0, symName: __ZN11DLinkedListI5PointED1Ev, symObjAddr: 0x12324, symBinAddr: 0x1000587A8, symSize: 0x2C }
  - { offset: 0x33BA0, size: 0x8, addend: 0x0, symName: __ZN12T_LinkedList12linkedList26Ev, symObjAddr: 0x12350, symBinAddr: 0x1000587D4, symSize: 0x734 }
  - { offset: 0x33C18, size: 0x8, addend: 0x0, symName: __ZN12T_LinkedList12linkedList27Ev, symObjAddr: 0x12A84, symBinAddr: 0x100058F08, symSize: 0x800 }
  - { offset: 0x33CA0, size: 0x8, addend: 0x0, symName: __ZN11DLinkedListI5PointE7indexOfES0_, symObjAddr: 0x13284, symBinAddr: 0x100059708, symSize: 0x20C }
  - { offset: 0x33D03, size: 0x8, addend: 0x0, symName: __ZN12T_LinkedList12linkedList28Ev, symObjAddr: 0x13490, symBinAddr: 0x100059914, symSize: 0x800 }
  - { offset: 0x33D8B, size: 0x8, addend: 0x0, symName: __ZN12T_LinkedList12linkedList29Ev, symObjAddr: 0x13C90, symBinAddr: 0x10005A114, symSize: 0x824 }
  - { offset: 0x33E13, size: 0x8, addend: 0x0, symName: __ZN11DLinkedListI5PointE8containsES0_, symObjAddr: 0x144B4, symBinAddr: 0x10005A938, symSize: 0x254 }
  - { offset: 0x33E4C, size: 0x8, addend: 0x0, symName: __ZN12T_LinkedList12linkedList30Ev, symObjAddr: 0x14708, symBinAddr: 0x10005AB8C, symSize: 0x7B4 }
  - { offset: 0x344A8, size: 0x8, addend: 0x0, symName: __ZN11DLinkedListIP5PointE4freeEPS2_, symObjAddr: 0x14EBC, symBinAddr: 0x10005B340, symSize: 0x38C }
  - { offset: 0x344DE, size: 0x8, addend: 0x0, symName: __ZN11DLinkedListIP5PointEC1EPFvPS2_EPFbRS1_S6_E, symObjAddr: 0x15248, symBinAddr: 0x10005B6CC, symSize: 0x3C }
  - { offset: 0x34526, size: 0x8, addend: 0x0, symName: __ZN11DLinkedListIP5PointE3addES1_, symObjAddr: 0x15284, symBinAddr: 0x10005B708, symSize: 0x2F0 }
  - { offset: 0x3456B, size: 0x8, addend: 0x0, symName: __ZN11DLinkedListIP5PointE8toStringEPFNSt3__112basic_stringIcNS3_11char_traitsIcEENS3_9allocatorIcEEEERS1_E, symObjAddr: 0x15574, symBinAddr: 0x10005B9F8, symSize: 0x754 }
  - { offset: 0x345C6, size: 0x8, addend: 0x0, symName: __ZN11DLinkedListIP5PointED1Ev, symObjAddr: 0x15CC8, symBinAddr: 0x10005C14C, symSize: 0x2C }
  - { offset: 0x345F2, size: 0x8, addend: 0x0, symName: __ZN12T_LinkedList12linkedList31Ev, symObjAddr: 0x15CF4, symBinAddr: 0x10005C178, symSize: 0x7C0 }
  - { offset: 0x3466A, size: 0x8, addend: 0x0, symName: __ZN11DLinkedListIP5PointE5clearEv, symObjAddr: 0x164B4, symBinAddr: 0x10005C938, symSize: 0x24 }
  - { offset: 0x34692, size: 0x8, addend: 0x0, symName: __ZN12T_LinkedList12linkedList32Ev, symObjAddr: 0x164D8, symBinAddr: 0x10005C95C, symSize: 0x8C8 }
  - { offset: 0x3471E, size: 0x8, addend: 0x0, symName: __ZN11DLinkedListIP5PointE10removeItemES1_PFvS1_E, symObjAddr: 0x16DA0, symBinAddr: 0x10005D224, symSize: 0x644 }
  - { offset: 0x34786, size: 0x8, addend: 0x0, symName: __ZN12T_LinkedList12linkedList33Ev, symObjAddr: 0x173E4, symBinAddr: 0x10005D868, symSize: 0xB2C }
  - { offset: 0x348EC, size: 0x8, addend: 0x0, symName: __ZN11DLinkedListIP5PointE5beginEv, symObjAddr: 0x181A8, symBinAddr: 0x10005E394, symSize: 0x204 }
  - { offset: 0x34913, size: 0x8, addend: 0x0, symName: __ZN11DLinkedListIP5PointE8IteratorneERKS3_, symObjAddr: 0x183AC, symBinAddr: 0x10005E598, symSize: 0xC0 }
  - { offset: 0x34947, size: 0x8, addend: 0x0, symName: __ZN11DLinkedListIP5PointE3endEv, symObjAddr: 0x1846C, symBinAddr: 0x10005E658, symSize: 0x204 }
  - { offset: 0x3496E, size: 0x8, addend: 0x0, symName: __ZN11DLinkedListIP5PointE8IteratordeEv, symObjAddr: 0x18670, symBinAddr: 0x10005E85C, symSize: 0x64 }
  - { offset: 0x34994, size: 0x8, addend: 0x0, symName: __ZN11DLinkedListIP5PointE8IteratorppEv, symObjAddr: 0x186D4, symBinAddr: 0x10005E8C0, symSize: 0xE8 }
  - { offset: 0x349BF, size: 0x8, addend: 0x0, symName: __ZN12T_LinkedList12linkedList34Ev, symObjAddr: 0x1882C, symBinAddr: 0x10005E9A8, symSize: 0xCA8 }
  - { offset: 0x34A65, size: 0x8, addend: 0x0, symName: __ZN11DLinkedListIP5PointE8Iterator6removeEPFvS1_E, symObjAddr: 0x194D4, symBinAddr: 0x10005F650, symSize: 0x4FC }
  - { offset: 0x34AA7, size: 0x8, addend: 0x0, symName: __ZN11DLinkedListIP5PointE8IteratorppEi, symObjAddr: 0x199D0, symBinAddr: 0x10005FB4C, symSize: 0x210 }
  - { offset: 0x34AEC, size: 0x8, addend: 0x0, symName: __ZN12T_LinkedList12linkedList35Ev, symObjAddr: 0x19BE0, symBinAddr: 0x10005FD5C, symSize: 0xB2C }
  - { offset: 0x34B7E, size: 0x8, addend: 0x0, symName: __ZN11DLinkedListIP5PointE6bbeginEv, symObjAddr: 0x1A70C, symBinAddr: 0x100060888, symSize: 0x204 }
  - { offset: 0x34BA5, size: 0x8, addend: 0x0, symName: __ZN11DLinkedListIP5PointE11BWDIteratorneERKS3_, symObjAddr: 0x1A910, symBinAddr: 0x100060A8C, symSize: 0xC0 }
  - { offset: 0x34BDA, size: 0x8, addend: 0x0, symName: __ZN11DLinkedListIP5PointE4bendEv, symObjAddr: 0x1A9D0, symBinAddr: 0x100060B4C, symSize: 0x204 }
  - { offset: 0x34C01, size: 0x8, addend: 0x0, symName: __ZN11DLinkedListIP5PointE11BWDIteratordeEv, symObjAddr: 0x1ABD4, symBinAddr: 0x100060D50, symSize: 0x64 }
  - { offset: 0x34C27, size: 0x8, addend: 0x0, symName: __ZN11DLinkedListIP5PointE11BWDIteratormmEv, symObjAddr: 0x1AC38, symBinAddr: 0x100060DB4, symSize: 0xE8 }
  - { offset: 0x34C4D, size: 0x8, addend: 0x0, symName: __ZN12T_LinkedList12linkedList36Ev, symObjAddr: 0x1AD20, symBinAddr: 0x100060E9C, symSize: 0xCA8 }
  - { offset: 0x34CF3, size: 0x8, addend: 0x0, symName: __ZN11DLinkedListIP5PointE11BWDIterator6removeEPFvS1_E, symObjAddr: 0x1B9C8, symBinAddr: 0x100061B44, symSize: 0x4FC }
  - { offset: 0x34D37, size: 0x8, addend: 0x0, symName: __ZN11DLinkedListIP5PointE11BWDIteratormmEi, symObjAddr: 0x1BEC4, symBinAddr: 0x100062040, symSize: 0x210 }
  - { offset: 0x34D83, size: 0x8, addend: 0x0, symName: __ZNSt3__13mapINS_12basic_stringIcNS_11char_traitsIcEENS_9allocatorIcEEEEM12T_LinkedListFbvENS_4lessIS6_EENS4_INS_4pairIKS6_S9_EEEEEC2B8ne180100Ev, symObjAddr: 0x1FA7C, symBinAddr: 0x100062250, symSize: 0x1E0 }
  - { offset: 0x34DAE, size: 0x8, addend: 0x0, symName: __ZNSt3__119__map_value_compareINS_12basic_stringIcNS_11char_traitsIcEENS_9allocatorIcEEEENS_12__value_typeIS6_M12T_LinkedListFbvEEENS_4lessIS6_EELb1EEC1B8ne180100ESD_, symObjAddr: 0x1FC5C, symBinAddr: 0x100062430, symSize: 0x2C }
  - { offset: 0x34DE7, size: 0x8, addend: 0x0, symName: __ZNSt3__16__treeINS_12__value_typeINS_12basic_stringIcNS_11char_traitsIcEENS_9allocatorIcEEEEM12T_LinkedListFbvEEENS_19__map_value_compareIS7_SB_NS_4lessIS7_EELb1EEENS5_ISB_EEEC1ERKSF_, symObjAddr: 0x1FC88, symBinAddr: 0x10006245C, symSize: 0x34 }
  - { offset: 0x34E22, size: 0x8, addend: 0x0, symName: __ZNSt3__119__map_value_compareINS_12basic_stringIcNS_11char_traitsIcEENS_9allocatorIcEEEENS_12__value_typeIS6_M12T_LinkedListFbvEEENS_4lessIS6_EELb1EEC2B8ne180100ESD_, symObjAddr: 0x1FCBC, symBinAddr: 0x100062490, symSize: 0x14 }
  - { offset: 0x34E5B, size: 0x8, addend: 0x0, symName: __ZNSt3__16__treeINS_12__value_typeINS_12basic_stringIcNS_11char_traitsIcEENS_9allocatorIcEEEEM12T_LinkedListFbvEEENS_19__map_value_compareIS7_SB_NS_4lessIS7_EELb1EEENS5_ISB_EEEC2ERKSF_, symObjAddr: 0x1FCD0, symBinAddr: 0x1000624A4, symSize: 0x30C }
  - { offset: 0x34E98, size: 0x8, addend: 0x0, symName: __ZNSt3__117__compressed_pairINS_15__tree_end_nodeIPNS_16__tree_node_baseIPvEEEENS_9allocatorINS_11__tree_nodeINS_12__value_typeINS_12basic_stringIcNS_11char_traitsIcEENS7_IcEEEEM12T_LinkedListFbvEEES3_EEEEEC1B8ne180100ILb1EvEEv, symObjAddr: 0x1FFDC, symBinAddr: 0x1000627B0, symSize: 0x2C }
  - { offset: 0x34ED3, size: 0x8, addend: 0x0, symName: __ZNSt3__117__compressed_pairImNS_19__map_value_compareINS_12basic_stringIcNS_11char_traitsIcEENS_9allocatorIcEEEENS_12__value_typeIS7_M12T_LinkedListFbvEEENS_4lessIS7_EELb1EEEEC1B8ne180100IiRKSF_EEOT_OT0_, symObjAddr: 0x20008, symBinAddr: 0x1000627DC, symSize: 0x3C }
  - { offset: 0x34F2B, size: 0x8, addend: 0x0, symName: __ZNSt3__117__compressed_pairINS_15__tree_end_nodeIPNS_16__tree_node_baseIPvEEEENS_9allocatorINS_11__tree_nodeINS_12__value_typeINS_12basic_stringIcNS_11char_traitsIcEENS7_IcEEEEM12T_LinkedListFbvEEES3_EEEEEC2B8ne180100ILb1EvEEv, symObjAddr: 0x20084, symBinAddr: 0x100062818, symSize: 0x34 }
  - { offset: 0x34F60, size: 0x8, addend: 0x0, symName: __ZNSt3__122__compressed_pair_elemINS_9allocatorINS_11__tree_nodeINS_12__value_typeINS_12basic_stringIcNS_11char_traitsIcEENS1_IcEEEEM12T_LinkedListFbvEEEPvEEEELi1ELb1EEC2B8ne180100ENS_16__value_init_tagE, symObjAddr: 0x200E4, symBinAddr: 0x10006284C, symSize: 0x2C }
  - { offset: 0x34F95, size: 0x8, addend: 0x0, symName: __ZNSt3__19allocatorINS_11__tree_nodeINS_12__value_typeINS_12basic_stringIcNS_11char_traitsIcEENS0_IcEEEEM12T_LinkedListFbvEEEPvEEEC2B8ne180100Ev, symObjAddr: 0x2019C, symBinAddr: 0x100062878, symSize: 0x2C }
  - { offset: 0x34FBF, size: 0x8, addend: 0x0, symName: __ZNSt3__116__non_trivial_ifILb1ENS_9allocatorINS_11__tree_nodeINS_12__value_typeINS_12basic_stringIcNS_11char_traitsIcEENS1_IcEEEEM12T_LinkedListFbvEEEPvEEEEEC2B8ne180100Ev, symObjAddr: 0x201C8, symBinAddr: 0x1000628A4, symSize: 0x14 }
  - { offset: 0x34FE9, size: 0x8, addend: 0x0, symName: __ZNSt3__117__compressed_pairImNS_19__map_value_compareINS_12basic_stringIcNS_11char_traitsIcEENS_9allocatorIcEEEENS_12__value_typeIS7_M12T_LinkedListFbvEEENS_4lessIS7_EELb1EEEEC2B8ne180100IiRKSF_EEOT_OT0_, symObjAddr: 0x201DC, symBinAddr: 0x1000628B8, symSize: 0x44 }
  - { offset: 0x35041, size: 0x8, addend: 0x0, symName: __ZNSt3__122__compressed_pair_elemINS_19__map_value_compareINS_12basic_stringIcNS_11char_traitsIcEENS_9allocatorIcEEEENS_12__value_typeIS7_M12T_LinkedListFbvEEENS_4lessIS7_EELb1EEELi1ELb1EEC2B8ne180100IRKSF_vEEOT_, symObjAddr: 0x202F8, symBinAddr: 0x1000628FC, symSize: 0x18 }
  - { offset: 0x35083, size: 0x8, addend: 0x0, symName: __ZNSt3__13mapINS_12basic_stringIcNS_11char_traitsIcEENS_9allocatorIcEEEEM12T_LinkedListFbvENS_4lessIS6_EENS4_INS_4pairIKS6_S9_EEEEED2B8ne180100Ev, symObjAddr: 0x2035C, symBinAddr: 0x100062914, symSize: 0x2C }
  - { offset: 0x350AD, size: 0x8, addend: 0x0, symName: __ZNSt3__16__treeINS_12__value_typeINS_12basic_stringIcNS_11char_traitsIcEENS_9allocatorIcEEEEM12T_LinkedListFbvEEENS_19__map_value_compareIS7_SB_NS_4lessIS7_EELb1EEENS5_ISB_EEED1Ev, symObjAddr: 0x20388, symBinAddr: 0x100062940, symSize: 0x2C }
  - { offset: 0x350D9, size: 0x8, addend: 0x0, symName: __ZNSt3__16__treeINS_12__value_typeINS_12basic_stringIcNS_11char_traitsIcEENS_9allocatorIcEEEEM12T_LinkedListFbvEEENS_19__map_value_compareIS7_SB_NS_4lessIS7_EELb1EEENS5_ISB_EEED2Ev, symObjAddr: 0x203B4, symBinAddr: 0x10006296C, symSize: 0x38 }
  - { offset: 0x35105, size: 0x8, addend: 0x0, symName: __ZNSt3__16__treeINS_12__value_typeINS_12basic_stringIcNS_11char_traitsIcEENS_9allocatorIcEEEEM12T_LinkedListFbvEEENS_19__map_value_compareIS7_SB_NS_4lessIS7_EELb1EEENS5_ISB_EEE7destroyEPNS_11__tree_nodeISB_PvEE, symObjAddr: 0x203EC, symBinAddr: 0x1000629A4, symSize: 0x134 }
  - { offset: 0x35151, size: 0x8, addend: 0x0, symName: __ZN11DLinkedListIiEC2EPFvPS0_EPFbRiS4_E, symObjAddr: 0x207F8, symBinAddr: 0x100062AD8, symSize: 0x400 }
  - { offset: 0x35199, size: 0x8, addend: 0x0, symName: __ZN11DLinkedListIiE4NodeC1EPS1_S2_, symObjAddr: 0x20C64, symBinAddr: 0x100062ED8, symSize: 0x3C }
  - { offset: 0x351DF, size: 0x8, addend: 0x0, symName: __ZN11DLinkedListIiED0Ev, symObjAddr: 0x20CB4, symBinAddr: 0x100062F14, symSize: 0x30 }
  - { offset: 0x3520B, size: 0x8, addend: 0x0, symName: __ZN11DLinkedListIiE4NodeC2EPS1_S2_, symObjAddr: 0x20D1C, symBinAddr: 0x100062F44, symSize: 0xC0 }
  - { offset: 0x35251, size: 0x8, addend: 0x0, symName: __ZN11DLinkedListIiED2Ev, symObjAddr: 0x20DDC, symBinAddr: 0x100063004, symSize: 0x154 }
  - { offset: 0x3527D, size: 0x8, addend: 0x0, symName: __ZN11DLinkedListIiE18removeInternalDataEv, symObjAddr: 0x20F30, symBinAddr: 0x100063158, symSize: 0x3DC }
  - { offset: 0x352D1, size: 0x8, addend: 0x0, symName: __ZN11DLinkedListIiE4NodeC1EiPS1_S2_, symObjAddr: 0x2130C, symBinAddr: 0x100063534, symSize: 0x44 }
  - { offset: 0x35325, size: 0x8, addend: 0x0, symName: __ZN11DLinkedListIiE4NodeC2EiPS1_S2_, symObjAddr: 0x21350, symBinAddr: 0x100063578, symSize: 0x12C }
  - { offset: 0x35379, size: 0x8, addend: 0x0, symName: __ZN11DLinkedListIiE17getPreviousNodeOfEi, symObjAddr: 0x214B0, symBinAddr: 0x1000636A4, symSize: 0x1E8 }
  - { offset: 0x353DB, size: 0x8, addend: 0x0, symName: __ZN11DLinkedListIiE6equalsERiS1_PFbS1_S1_E, symObjAddr: 0x2171C, symBinAddr: 0x10006388C, symSize: 0x158 }
  - { offset: 0x3541A, size: 0x8, addend: 0x0, symName: __ZN11DLinkedListI5PointEC2EPFvPS1_EPFbRS0_S5_E, symObjAddr: 0x21874, symBinAddr: 0x1000639E4, symSize: 0x400 }
  - { offset: 0x35462, size: 0x8, addend: 0x0, symName: __ZN11DLinkedListI5PointE4NodeC1EPS2_S3_, symObjAddr: 0x21CE0, symBinAddr: 0x100063DE4, symSize: 0x3C }
  - { offset: 0x354A8, size: 0x8, addend: 0x0, symName: __ZN11DLinkedListI5PointED0Ev, symObjAddr: 0x21D30, symBinAddr: 0x100063E20, symSize: 0x30 }
  - { offset: 0x354D4, size: 0x8, addend: 0x0, symName: __ZN11DLinkedListI5PointE3addEiS0_, symObjAddr: 0x21D60, symBinAddr: 0x100063E50, symSize: 0x548 }
  - { offset: 0x3553C, size: 0x8, addend: 0x0, symName: __ZN11DLinkedListI5PointE8removeAtEi, symObjAddr: 0x222A8, symBinAddr: 0x100064398, symSize: 0x338 }
  - { offset: 0x355A1, size: 0x8, addend: 0x0, symName: __ZN11DLinkedListI5PointE10removeItemES0_PFvS0_E, symObjAddr: 0x225E0, symBinAddr: 0x1000646D0, symSize: 0x5DC }
  - { offset: 0x35607, size: 0x8, addend: 0x0, symName: __ZN11DLinkedListI5PointE5emptyEv, symObjAddr: 0x22BBC, symBinAddr: 0x100064CAC, symSize: 0x98 }
  - { offset: 0x3562F, size: 0x8, addend: 0x0, symName: __ZN11DLinkedListI5PointE4sizeEv, symObjAddr: 0x22C54, symBinAddr: 0x100064D44, symSize: 0x8C }
  - { offset: 0x35657, size: 0x8, addend: 0x0, symName: __ZN11DLinkedListI5PointE5clearEv, symObjAddr: 0x22CE0, symBinAddr: 0x100064DD0, symSize: 0x24 }
  - { offset: 0x3567F, size: 0x8, addend: 0x0, symName: __ZN11DLinkedListI5PointE3getEi, symObjAddr: 0x22D04, symBinAddr: 0x100064DF4, symSize: 0x178 }
  - { offset: 0x356C4, size: 0x8, addend: 0x0, symName: __ZN11DLinkedListI5PointE4NodeC2EPS2_S3_, symObjAddr: 0x22EB4, symBinAddr: 0x100064F6C, symSize: 0xD8 }
  - { offset: 0x3570A, size: 0x8, addend: 0x0, symName: __ZN11DLinkedListI5PointE17getPreviousNodeOfEi, symObjAddr: 0x22F8C, symBinAddr: 0x100065044, symSize: 0x1E8 }
  - { offset: 0x3576C, size: 0x8, addend: 0x0, symName: __ZN11DLinkedListI5PointE4NodeC1ES0_PS2_S3_, symObjAddr: 0x23174, symBinAddr: 0x10006522C, symSize: 0x44 }
  - { offset: 0x357C1, size: 0x8, addend: 0x0, symName: __ZN11DLinkedListI5PointE4NodeC2ES0_PS2_S3_, symObjAddr: 0x231B8, symBinAddr: 0x100065270, symSize: 0xF0 }
  - { offset: 0x35816, size: 0x8, addend: 0x0, symName: __ZN11DLinkedListI5PointE6equalsERS0_S2_PFbS2_S2_E, symObjAddr: 0x232A8, symBinAddr: 0x100065360, symSize: 0x224 }
  - { offset: 0x35858, size: 0x8, addend: 0x0, symName: __ZN11DLinkedListI5PointE18removeInternalDataEv, symObjAddr: 0x234CC, symBinAddr: 0x100065584, symSize: 0x3DC }
  - { offset: 0x358AC, size: 0x8, addend: 0x0, symName: __ZN11DLinkedListI5PointED2Ev, symObjAddr: 0x238A8, symBinAddr: 0x100065960, symSize: 0x154 }
  - { offset: 0x358D8, size: 0x8, addend: 0x0, symName: __ZN11DLinkedListIP5PointEC2EPFvPS2_EPFbRS1_S6_E, symObjAddr: 0x239FC, symBinAddr: 0x100065AB4, symSize: 0x400 }
  - { offset: 0x35920, size: 0x8, addend: 0x0, symName: __ZN11DLinkedListIP5PointE4NodeC1EPS3_S4_, symObjAddr: 0x23E68, symBinAddr: 0x100065EB4, symSize: 0x3C }
  - { offset: 0x35966, size: 0x8, addend: 0x0, symName: __ZN11DLinkedListIP5PointED0Ev, symObjAddr: 0x23EB8, symBinAddr: 0x100065EF0, symSize: 0x30 }
  - { offset: 0x35992, size: 0x8, addend: 0x0, symName: __ZN11DLinkedListIP5PointE3addEiS1_, symObjAddr: 0x23EE8, symBinAddr: 0x100065F20, symSize: 0x308 }
  - { offset: 0x359F4, size: 0x8, addend: 0x0, symName: __ZN11DLinkedListIP5PointE8removeAtEi, symObjAddr: 0x241F0, symBinAddr: 0x100066228, symSize: 0x368 }
  - { offset: 0x35A58, size: 0x8, addend: 0x0, symName: __ZN11DLinkedListIP5PointE5emptyEv, symObjAddr: 0x24558, symBinAddr: 0x100066590, symSize: 0x98 }
  - { offset: 0x35A80, size: 0x8, addend: 0x0, symName: __ZN11DLinkedListIP5PointE4sizeEv, symObjAddr: 0x245F0, symBinAddr: 0x100066628, symSize: 0x8C }
  - { offset: 0x35AA8, size: 0x8, addend: 0x0, symName: __ZN11DLinkedListIP5PointE3getEi, symObjAddr: 0x2467C, symBinAddr: 0x1000666B4, symSize: 0x178 }
  - { offset: 0x35AED, size: 0x8, addend: 0x0, symName: __ZN11DLinkedListIP5PointE7indexOfES1_, symObjAddr: 0x247F4, symBinAddr: 0x10006682C, symSize: 0x3C4 }
  - { offset: 0x35B56, size: 0x8, addend: 0x0, symName: __ZN11DLinkedListIP5PointE8containsES1_, symObjAddr: 0x24BB8, symBinAddr: 0x100066BF0, symSize: 0xC4 }
  - { offset: 0x35B8C, size: 0x8, addend: 0x0, symName: __ZN11DLinkedListIP5PointE4NodeC2EPS3_S4_, symObjAddr: 0x24CB4, symBinAddr: 0x100066CB4, symSize: 0xC0 }
  - { offset: 0x35BD2, size: 0x8, addend: 0x0, symName: __ZN11DLinkedListIP5PointE17getPreviousNodeOfEi, symObjAddr: 0x24D74, symBinAddr: 0x100066D74, symSize: 0x1E8 }
  - { offset: 0x35C34, size: 0x8, addend: 0x0, symName: __ZN11DLinkedListIP5PointE4NodeC1ES1_PS3_S4_, symObjAddr: 0x24F5C, symBinAddr: 0x100066F5C, symSize: 0x44 }
  - { offset: 0x35C88, size: 0x8, addend: 0x0, symName: __ZN11DLinkedListIP5PointE4NodeC2ES1_PS3_S4_, symObjAddr: 0x24FA0, symBinAddr: 0x100066FA0, symSize: 0x104 }
  - { offset: 0x35CDC, size: 0x8, addend: 0x0, symName: __ZN11DLinkedListIP5PointE6equalsERS1_S3_PFbS3_S3_E, symObjAddr: 0x250A4, symBinAddr: 0x1000670A4, symSize: 0x108 }
  - { offset: 0x35D1B, size: 0x8, addend: 0x0, symName: __ZN11DLinkedListIP5PointED2Ev, symObjAddr: 0x251AC, symBinAddr: 0x1000671AC, symSize: 0x154 }
  - { offset: 0x35D47, size: 0x8, addend: 0x0, symName: __ZN11DLinkedListIP5PointE18removeInternalDataEv, symObjAddr: 0x25300, symBinAddr: 0x100067300, symSize: 0x3DC }
  - { offset: 0x35D9B, size: 0x8, addend: 0x0, symName: __ZN11DLinkedListIP5PointE8IteratorC1EPS2_b, symObjAddr: 0x2630C, symBinAddr: 0x1000676DC, symSize: 0x48 }
  - { offset: 0x35DE1, size: 0x8, addend: 0x0, symName: __ZN11DLinkedListIP5PointE8IteratorC2EPS2_b, symObjAddr: 0x26354, symBinAddr: 0x100067724, symSize: 0x298 }
  - { offset: 0x35E27, size: 0x8, addend: 0x0, symName: __ZN11DLinkedListIP5PointE11BWDIteratorC1EPS2_b, symObjAddr: 0x265EC, symBinAddr: 0x1000679BC, symSize: 0x48 }
  - { offset: 0x35E6D, size: 0x8, addend: 0x0, symName: __ZN11DLinkedListIP5PointE11BWDIteratorC2EPS2_b, symObjAddr: 0x26634, symBinAddr: 0x100067A04, symSize: 0x298 }
  - { offset: 0x37DC3, size: 0x8, addend: 0x0, symName: _.str, symObjAddr: 0xFB20, symBinAddr: 0x100074FC0, symSize: 0x0 }
  - { offset: 0x37DF3, size: 0x8, addend: 0x0, symName: _.str.1, symObjAddr: 0xFB40, symBinAddr: 0x100074FE0, symSize: 0x0 }
  - { offset: 0x37E04, size: 0x8, addend: 0x0, symName: _.str.2, symObjAddr: 0xFB60, symBinAddr: 0x100075000, symSize: 0x0 }
  - { offset: 0x37E15, size: 0x8, addend: 0x0, symName: _.str.3, symObjAddr: 0xFB80, symBinAddr: 0x100075020, symSize: 0x0 }
  - { offset: 0x37E32, size: 0x8, addend: 0x0, symName: _.str.4, symObjAddr: 0xFBA0, symBinAddr: 0x100075040, symSize: 0x0 }
  - { offset: 0x37E4F, size: 0x8, addend: 0x0, symName: _.str.5, symObjAddr: 0xFBE0, symBinAddr: 0x100075080, symSize: 0x0 }
  - { offset: 0x37E6C, size: 0x8, addend: 0x0, symName: _.str.6, symObjAddr: 0xFC20, symBinAddr: 0x1000750C0, symSize: 0x0 }
  - { offset: 0x37E89, size: 0x8, addend: 0x0, symName: _.str.7, symObjAddr: 0xFC60, symBinAddr: 0x100075100, symSize: 0x0 }
  - { offset: 0x37E9A, size: 0x8, addend: 0x0, symName: _.str.8, symObjAddr: 0xFC80, symBinAddr: 0x100075120, symSize: 0x0 }
  - { offset: 0x37EB7, size: 0x8, addend: 0x0, symName: _.str.9, symObjAddr: 0xFCE0, symBinAddr: 0x100075180, symSize: 0x0 }
  - { offset: 0x37ED4, size: 0x8, addend: 0x0, symName: _.str.10, symObjAddr: 0xFD00, symBinAddr: 0x1000751A0, symSize: 0x0 }
  - { offset: 0x37EF1, size: 0x8, addend: 0x0, symName: _.str.11, symObjAddr: 0xFD40, symBinAddr: 0x1000751E0, symSize: 0x0 }
  - { offset: 0x37F0E, size: 0x8, addend: 0x0, symName: _.str.12, symObjAddr: 0xFD60, symBinAddr: 0x100075200, symSize: 0x0 }
  - { offset: 0x37F2B, size: 0x8, addend: 0x0, symName: _.str.13, symObjAddr: 0xFD80, symBinAddr: 0x100075220, symSize: 0x0 }
  - { offset: 0x37F3C, size: 0x8, addend: 0x0, symName: _.str.14, symObjAddr: 0xFDC0, symBinAddr: 0x100075260, symSize: 0x0 }
  - { offset: 0x37F59, size: 0x8, addend: 0x0, symName: _.str.15, symObjAddr: 0xFDE0, symBinAddr: 0x100075280, symSize: 0x0 }
  - { offset: 0x37F76, size: 0x8, addend: 0x0, symName: _.str.16, symObjAddr: 0xFE40, symBinAddr: 0x1000752E0, symSize: 0x0 }
  - { offset: 0x37F93, size: 0x8, addend: 0x0, symName: _.str.17, symObjAddr: 0xFE80, symBinAddr: 0x100075320, symSize: 0x0 }
  - { offset: 0x37FB0, size: 0x8, addend: 0x0, symName: _.str.18, symObjAddr: 0xFEC0, symBinAddr: 0x100075360, symSize: 0x0 }
  - { offset: 0x37FCD, size: 0x8, addend: 0x0, symName: _.str.19, symObjAddr: 0xFEE0, symBinAddr: 0x100075380, symSize: 0x0 }
  - { offset: 0x37FEA, size: 0x8, addend: 0x0, symName: _.str.20, symObjAddr: 0xFF00, symBinAddr: 0x1000753A0, symSize: 0x0 }
  - { offset: 0x37FFB, size: 0x8, addend: 0x0, symName: _.str.21, symObjAddr: 0xFF20, symBinAddr: 0x1000753C0, symSize: 0x0 }
  - { offset: 0x38019, size: 0x8, addend: 0x0, symName: _.str.22, symObjAddr: 0xFF80, symBinAddr: 0x100075420, symSize: 0x0 }
  - { offset: 0x44648, size: 0x8, addend: 0x0, symName: __ZNSt3__1rsB8ne180100IcNS_11char_traitsIcEENS_9allocatorIcEEEERNS_13basic_istreamIT_T0_EES9_RNS_12basic_stringIS6_S7_T1_EE, symObjAddr: 0x1534, symBinAddr: 0x10006904C, symSize: 0xAC8 }
  - { offset: 0x4646C, size: 0x8, addend: 0x0, symName: __ZN10RandomTestC2Eii, symObjAddr: 0x0, symBinAddr: 0x100067D50, symSize: 0x1D0 }
  - { offset: 0x464B9, size: 0x8, addend: 0x0, symName: __ZN10RandomTestC1Eii, symObjAddr: 0x204, symBinAddr: 0x100067F20, symSize: 0x3C }
  - { offset: 0x46501, size: 0x8, addend: 0x0, symName: __ZN10RandomTest7runTestEv, symObjAddr: 0x240, symBinAddr: 0x100067F5C, symSize: 0x6BC }
  - { offset: 0x4656A, size: 0x8, addend: 0x0, symName: __ZN10RandomTest11processFileENSt3__112basic_stringIcNS0_11char_traitsIcEENS0_9allocatorIcEEEES6_, symObjAddr: 0x940, symBinAddr: 0x100068618, symSize: 0x754 }
  - { offset: 0x466F0, size: 0x8, addend: 0x0, symName: __ZNSt3__114basic_ifstreamIcNS_11char_traitsIcEEEC1ERKNS_12basic_stringIcS2_NS_9allocatorIcEEEEj, symObjAddr: 0x1094, symBinAddr: 0x100068D6C, symSize: 0x2B4 }
  - { offset: 0x4673A, size: 0x8, addend: 0x0, symName: __ZNKSt3__114basic_ifstreamIcNS_11char_traitsIcEEE7is_openEv, symObjAddr: 0x1348, symBinAddr: 0x100069020, symSize: 0x2C }
  - { offset: 0x46767, size: 0x8, addend: 0x0, symName: __ZNSt3__114basic_ifstreamIcNS_11char_traitsIcEEED1Ev, symObjAddr: 0x1FFC, symBinAddr: 0x100069B14, symSize: 0x40 }
  - { offset: 0x46794, size: 0x8, addend: 0x0, symName: __ZN10RandomTest14compareOutputsEv, symObjAddr: 0x203C, symBinAddr: 0x100069B54, symSize: 0xEF0 }
  - { offset: 0x468CA, size: 0x8, addend: 0x0, symName: __ZN10RandomTest12compareFilesERKNSt3__112basic_stringIcNS0_11char_traitsIcEENS0_9allocatorIcEEEES8_, symObjAddr: 0x2F98, symBinAddr: 0x10006AA44, symSize: 0x818 }
  - { offset: 0x4695C, size: 0x8, addend: 0x0, symName: __ZNSt3__16vectorINS_12basic_stringIcNS_11char_traitsIcEENS_9allocatorIcEEEENS4_IS6_EEE9push_backB8ne180100EOS6_, symObjAddr: 0x37B0, symBinAddr: 0x10006B25C, symSize: 0x140 }
  - { offset: 0x469F4, size: 0x8, addend: 0x0, symName: __ZNKSt3__114basic_ifstreamIcNS_11char_traitsIcEEE5rdbufEv, symObjAddr: 0x429C, symBinAddr: 0x10006B39C, symSize: 0x18 }
  - { offset: 0x46A21, size: 0x8, addend: 0x0, symName: __ZNSt3__114basic_ifstreamIcNS_11char_traitsIcEEED2Ev, symObjAddr: 0x4554, symBinAddr: 0x10006B3B4, symSize: 0x198 }
  - { offset: 0x46A5B, size: 0x8, addend: 0x0, symName: __ZTv0_n24_NSt3__114basic_ifstreamIcNS_11char_traitsIcEEED1Ev, symObjAddr: 0x46EC, symBinAddr: 0x10006B54C, symSize: 0xB0 }
  - { offset: 0x46A77, size: 0x8, addend: 0x0, symName: __ZNSt3__113basic_filebufIcNS_11char_traitsIcEEE4openERKNS_12basic_stringIcS2_NS_9allocatorIcEEEEj, symObjAddr: 0x5AC0, symBinAddr: 0x10006B5FC, symSize: 0x44 }
  - { offset: 0x46ABD, size: 0x8, addend: 0x0, symName: __ZNKSt3__112basic_stringIcNS_11char_traitsIcEENS_9allocatorIcEEE5c_strB8ne180100Ev, symObjAddr: 0x5C90, symBinAddr: 0x10006B640, symSize: 0x24 }
  - { offset: 0x46AE3, size: 0x8, addend: 0x0, symName: __ZNKSt3__113basic_filebufIcNS_11char_traitsIcEEE7is_openEv, symObjAddr: 0x5E88, symBinAddr: 0x10006B664, symSize: 0x70 }
  - { offset: 0x46B2E, size: 0x8, addend: 0x0, symName: __ZNKSt3__113basic_istreamIcNS_11char_traitsIcEEE6sentrycvbB8ne180100Ev, symObjAddr: 0x7CFC, symBinAddr: 0x10006B6D4, symSize: 0x88 }
  - { offset: 0x46B54, size: 0x8, addend: 0x0, symName: __ZNSt3__112basic_stringIcNS_11char_traitsIcEENS_9allocatorIcEEE5clearB8ne180100Ev, symObjAddr: 0x7D84, symBinAddr: 0x10006B75C, symSize: 0x320 }
  - { offset: 0x46B8D, size: 0x8, addend: 0x0, symName: __ZNKSt3__112basic_stringIcNS_11char_traitsIcEENS_9allocatorIcEEE8max_sizeB8ne180100Ev, symObjAddr: 0x80A4, symBinAddr: 0x10006BA7C, symSize: 0xBC }
  - { offset: 0x46BDF, size: 0x8, addend: 0x0, symName: __ZNSt3__115basic_streambufIcNS_11char_traitsIcEEE5sgetcB8ne180100Ev, symObjAddr: 0x8174, symBinAddr: 0x10006BB38, symSize: 0x1E4 }
  - { offset: 0x46C05, size: 0x8, addend: 0x0, symName: __ZNSt3__111char_traitsIcE12to_char_typeB8ne180100Ei, symObjAddr: 0x8358, symBinAddr: 0x10006BD1C, symSize: 0x18 }
  - { offset: 0x46C29, size: 0x8, addend: 0x0, symName: __ZNKSt3__15ctypeIcE2isB8ne180100Ejc, symObjAddr: 0x8370, symBinAddr: 0x10006BD34, symSize: 0x120 }
  - { offset: 0x46C6D, size: 0x8, addend: 0x0, symName: __ZNSt3__115basic_streambufIcNS_11char_traitsIcEEE6sbumpcB8ne180100Ev, symObjAddr: 0x8490, symBinAddr: 0x10006BE54, symSize: 0x1EC }
  - { offset: 0x46C93, size: 0x8, addend: 0x0, symName: __ZNSt3__18ios_base18__setstate_nothrowB8ne180100Ej, symObjAddr: 0x867C, symBinAddr: 0x10006C040, symSize: 0x178 }
  - { offset: 0x46CC8, size: 0x8, addend: 0x0, symName: __ZNKSt3__19basic_iosIcNS_11char_traitsIcEEE10exceptionsB8ne180100Ev, symObjAddr: 0x87F4, symBinAddr: 0x10006C1B8, symSize: 0x24 }
  - { offset: 0x46CEE, size: 0x8, addend: 0x0, symName: __ZNSt3__112basic_stringIcNS_11char_traitsIcEENS_9allocatorIcEEE15__set_long_sizeB8ne180100Em, symObjAddr: 0x890C, symBinAddr: 0x10006C1DC, symSize: 0x80 }
  - { offset: 0x46D2D, size: 0x8, addend: 0x0, symName: __ZNSt3__116allocator_traitsINS_9allocatorIcEEE8max_sizeB8ne180100IS2_vEEmRKS2_, symObjAddr: 0x8AD0, symBinAddr: 0x10006C25C, symSize: 0x24 }
  - { offset: 0x46D5B, size: 0x8, addend: 0x0, symName: __ZNKSt3__112basic_stringIcNS_11char_traitsIcEENS_9allocatorIcEEE7__allocB8ne180100Ev, symObjAddr: 0x8AF4, symBinAddr: 0x10006C280, symSize: 0x24 }
  - { offset: 0x46D81, size: 0x8, addend: 0x0, symName: __ZNSt3__114numeric_limitsImE3maxB8ne180100Ev, symObjAddr: 0x8B18, symBinAddr: 0x10006C2A4, symSize: 0x14 }
  - { offset: 0x46D95, size: 0x8, addend: 0x0, symName: __ZNKSt3__19allocatorIcE8max_sizeB8ne180100Ev, symObjAddr: 0x8B2C, symBinAddr: 0x10006C2B8, symSize: 0x14 }
  - { offset: 0x46DBB, size: 0x8, addend: 0x0, symName: __ZNKSt3__117__compressed_pairINS_12basic_stringIcNS_11char_traitsIcEENS_9allocatorIcEEE5__repES5_E6secondB8ne180100Ev, symObjAddr: 0x8B40, symBinAddr: 0x10006C2CC, symSize: 0x24 }
  - { offset: 0x46DE1, size: 0x8, addend: 0x0, symName: __ZNKSt3__122__compressed_pair_elemINS_9allocatorIcEELi1ELb1EE5__getB8ne180100Ev, symObjAddr: 0x8B64, symBinAddr: 0x10006C2F0, symSize: 0x14 }
  - { offset: 0x46E07, size: 0x8, addend: 0x0, symName: __ZNSt3__123__libcpp_numeric_limitsImLb1EE3maxB8ne180100Ev, symObjAddr: 0x8B78, symBinAddr: 0x10006C304, symSize: 0x8 }
  - { offset: 0x46E1B, size: 0x8, addend: 0x0, symName: __ZNSt3__111char_traitsIcE11to_int_typeB8ne180100Ec, symObjAddr: 0x8B88, symBinAddr: 0x10006C30C, symSize: 0x14 }
  - { offset: 0x46E3E, size: 0x8, addend: 0x0, symName: __Z7isasciii, symObjAddr: 0x8B9C, symBinAddr: 0x10006C320, symSize: 0x24 }
  - { offset: 0x46E6B, size: 0x8, addend: 0x0, symName: __ZNKSt3__18ios_base10exceptionsB8ne180100Ev, symObjAddr: 0x8BC0, symBinAddr: 0x10006C344, symSize: 0x8C }
  - { offset: 0x46E99, size: 0x8, addend: 0x0, symName: __ZNSt3__16vectorINS_12basic_stringIcNS_11char_traitsIcEENS_9allocatorIcEEEENS4_IS6_EEE22__construct_one_at_endB8ne180100IJS6_EEEvDpOT_, symObjAddr: 0x9C80, symBinAddr: 0x10006C3D0, symSize: 0x390 }
  - { offset: 0x46EEE, size: 0x8, addend: 0x0, symName: __ZNSt3__16vectorINS_12basic_stringIcNS_11char_traitsIcEENS_9allocatorIcEEEENS4_IS6_EEE21__push_back_slow_pathIS6_EEPS6_OT_, symObjAddr: 0xA010, symBinAddr: 0x10006C760, symSize: 0x42C }
...
